00000000  CA1F00            retf word 0x1f
00000003  002B              add [bp+di],ch
00000005  4C                dec sp
00000006  3230              xor dh,[bx+si]
00000008  7830              js 0x3a
0000000A  C2307A            ret word 0x7a30
0000000D  42                inc dx
0000000E  D84BDB            fmul dword [bp+di-0x25]
00000011  3233              xor dh,[bp+di]
00000013  33CA              xor cx,dx
00000015  334A34            xor cx,[bp+si+0x34]
00000018  6536B136          ss mov cl,0x36
0000001C  2B4CDA            sub cx,[si-0x26]
0000001F  30FD              xor ch,bh
00000021  367F37            ss jg 0x5b
00000024  7D38              jnl 0x5e
00000026  C53B              lds di,word [bp+di]
00000028  303D              xor [di],bh
0000002A  49                dec cx
0000002B  3E9F              ds lahf
0000002D  3E9C              ds pushf
0000002F  40                inc ax
00000030  A6                cmpsb
00000031  41                inc cx
00000032  56                push si
00000033  42                inc dx
00000034  134C50            adc cx,[si+0x50]
00000037  53                push bx
00000038  51                push cx
00000039  1E                push ds
0000003A  8AC5              mov al,ch
0000003C  F6E1              mul cl
0000003E  8BE8              mov bp,ax
00000040  06                push es
00000041  1F                pop ds
00000042  8BF7              mov si,di
00000044  8CC8              mov ax,cs
00000046  050030            add ax,0x3000
00000049  8EC0              mov es,ax
0000004B  BF0000            mov di,0x0
0000004E  2EC706564C0000    mov word [cs:0x4c56],0x0
00000055  2EC706584C0000    mov word [cs:0x4c58],0x0
0000005C  8BCD              mov cx,bp
0000005E  D1E9              shr cx,0x0
00000060  3E8B02            mov ax,[ds:bp+si]
00000063  2EA35A4C          mov [cs:0x4c5a],ax
00000067  AD                lodsw
00000068  2EA3544C          mov [cs:0x4c54],ax
0000006C  E81D1B            call 0x1b8c
0000006F  AB                stosw
00000070  E2EE              loop 0x60
00000072  1F                pop ds
00000073  59                pop cx
00000074  5B                pop bx
00000075  58                pop ax
00000076  BF0000            mov di,0x0
00000079  E9D000            jmp 0x14c
0000007C  50                push ax
0000007D  53                push bx
0000007E  51                push cx
0000007F  1E                push ds
00000080  8AC5              mov al,ch
00000082  F6E1              mul cl
00000084  8BE8              mov bp,ax
00000086  06                push es
00000087  1F                pop ds
00000088  8BF7              mov si,di
0000008A  8CC8              mov ax,cs
0000008C  050030            add ax,0x3000
0000008F  8EC0              mov es,ax
00000091  BF0000            mov di,0x0
00000094  2EC7065A4C0000    mov word [cs:0x4c5a],0x0
0000009B  8BCD              mov cx,bp
0000009D  D1E9              shr cx,0x0
0000009F  03ED              add bp,bp
000000A1  3E8B02            mov ax,[ds:bp+si]
000000A4  2EA3584C          mov [cs:0x4c58],ax
000000A8  D1ED              shr bp,0x0
000000AA  3E8B02            mov ax,[ds:bp+si]
000000AD  2EA3564C          mov [cs:0x4c56],ax
000000B1  AD                lodsw
000000B2  2EA3544C          mov [cs:0x4c54],ax
000000B6  E8D31A            call 0x1b8c
000000B9  AB                stosw
000000BA  E2E3              loop 0x9f
000000BC  1F                pop ds
000000BD  59                pop cx
000000BE  5B                pop bx
000000BF  58                pop ax
000000C0  BF0000            mov di,0x0
000000C3  E98600            jmp 0x14c
000000C6  1E                push ds
000000C7  50                push ax
000000C8  06                push es
000000C9  57                push di
000000CA  E8631B            call 0x1c30
000000CD  8BF8              mov di,ax
000000CF  5E                pop si
000000D0  1F                pop ds
000000D1  58                pop ax
000000D2  2EC706604CA632    mov word [cs:0x4c60],0x32a6
000000D9  E89B00            call 0x177
000000DC  1F                pop ds
000000DD  C3                ret
000000DE  53                push bx
000000DF  51                push cx
000000E0  1E                push ds
000000E1  8AC5              mov al,ch
000000E3  F6E1              mul cl
000000E5  8BE8              mov bp,ax
000000E7  06                push es
000000E8  1F                pop ds
000000E9  8BF7              mov si,di
000000EB  8CC8              mov ax,cs
000000ED  050030            add ax,0x3000
000000F0  8EC0              mov es,ax
000000F2  BF0000            mov di,0x0
000000F5  2EC7065A4C0000    mov word [cs:0x4c5a],0x0
000000FC  2EC706544C0000    mov word [cs:0x4c54],0x0
00000103  8BCD              mov cx,bp
00000105  D1E9              shr cx,0x0
00000107  3E8B02            mov ax,[ds:bp+si]
0000010A  2EA3584C          mov [cs:0x4c58],ax
0000010E  AD                lodsw
0000010F  2EA3564C          mov [cs:0x4c56],ax
00000113  E8761A            call 0x1b8c
00000116  AB                stosw
00000117  E2EE              loop 0x107
00000119  1F                pop ds
0000011A  59                pop cx
0000011B  5B                pop bx
0000011C  33C0              xor ax,ax
0000011E  BF0000            mov di,0x0
00000121  1E                push ds
00000122  50                push ax
00000123  06                push es
00000124  57                push di
00000125  E8081B            call 0x1c30
00000128  8BF8              mov di,ax
0000012A  5E                pop si
0000012B  1F                pop ds
0000012C  58                pop ax
0000012D  2EC706604C5632    mov word [cs:0x4c60],0x3256
00000134  2EC6065F4C00      mov byte [cs:0x4c5f],0x0
0000013A  0AC0              or al,al
0000013C  7503              jnz 0x141
0000013E  E83600            call 0x177
00000141  2EC6065F4CFF      mov byte [cs:0x4c5f],0xff
00000147  E82D00            call 0x177
0000014A  1F                pop ds
0000014B  C3                ret
0000014C  1E                push ds
0000014D  50                push ax
0000014E  06                push es
0000014F  57                push di
00000150  E8DD1A            call 0x1c30
00000153  03F8              add di,ax
00000155  5E                pop si
00000156  1F                pop ds
00000157  58                pop ax
00000158  2EC706604C1932    mov word [cs:0x4c60],0x3219
0000015F  2EC6065F4C00      mov byte [cs:0x4c5f],0x0
00000165  0AC0              or al,al
00000167  7503              jnz 0x16c
00000169  E80B00            call 0x177
0000016C  2EC6065F4CFF      mov byte [cs:0x4c5f],0xff
00000172  E80200            call 0x177
00000175  1F                pop ds
00000176  C3                ret
00000177  2EC6065D4C00      mov byte [cs:0x4c5d],0x0
0000017D  B800B0            mov ax,0xb000
00000180  8EC0              mov es,ax
00000182  BD0800            mov bp,0x8
00000185  2EA05D4C          mov al,[cs:0x4c5d]
00000189  2EA25C4C          mov [cs:0x4c5c],al
0000018D  2EC6061AFF00      mov byte [cs:0xff1a],0x0
00000193  51                push cx
00000194  56                push si
00000195  57                push di
00000196  2E8A1E5C4C        mov bl,[cs:0x4c5c]
0000019B  83E307            and bx,0x7
0000019E  03DB              add bx,bx
000001A0  2E8B9FBB32        mov bx,[cs:bx+0x32bb]
000001A5  53                push bx
000001A6  2EFF16604C        call word near [cs:0x4c60]
000001AB  5B                pop bx
000001AC  2EFE065C4C        inc byte [cs:0x4c5c]
000001B1  81C70020          add di,0x2000
000001B5  81FF0060          cmp di,0x6000
000001B9  7209              jc 0x1c4
000001BB  2EFF16604C        call word near [cs:0x4c60]
000001C0  81C75AA0          add di,0xa05a
000001C4  8AC5              mov al,ch
000001C6  32E4              xor ah,ah
000001C8  03F0              add si,ax
000001CA  FEC9              dec cl
000001CC  7438              jz 0x206
000001CE  2E8A1E5C4C        mov bl,[cs:0x4c5c]
000001D3  83E307            and bx,0x7
000001D6  03DB              add bx,bx
000001D8  2E8B9FCB32        mov bx,[cs:bx+0x32cb]
000001DD  53                push bx
000001DE  2EFF16604C        call word near [cs:0x4c60]
000001E3  5B                pop bx
000001E4  2EFE065C4C        inc byte [cs:0x4c5c]
000001E9  81C70020          add di,0x2000
000001ED  81FF0060          cmp di,0x6000
000001F1  7209              jc 0x1fc
000001F3  2EFF16604C        call word near [cs:0x4c60]
000001F8  81C75AA0          add di,0xa05a
000001FC  8AC5              mov al,ch
000001FE  32E4              xor ah,ah
00000200  03F0              add si,ax
00000202  FEC9              dec cl
00000204  7590              jnz 0x196
00000206  5F                pop di
00000207  5E                pop si
00000208  59                pop cx
00000209  2EFE065D4C        inc byte [cs:0x4c5d]
0000020E  2E803E1AFF14      cmp byte [cs:0xff1a],0x14
00000214  72F8              jc 0x20e
00000216  4D                dec bp
00000217  7403              jz 0x21c
00000219  E969FF            jmp 0x185
0000021C  C3                ret
0000021D  2EF6065F4CFF      test byte [cs:0x4c5f],0xff
00000223  741F              jz 0x244
00000225  56                push si
00000226  57                push di
00000227  51                push cx
00000228  8BD3              mov dx,bx
0000022A  F7D3              not bx
0000022C  8ACD              mov cl,ch
0000022E  32ED              xor ch,ch
00000230  26201D            and [es:di],bl
00000233  AC                lodsb
00000234  22C2              and al,dl
00000236  260805            or [es:di],al
00000239  47                inc di
0000023A  86F2              xchg dh,dl
0000023C  86FB              xchg bh,bl
0000023E  E2F0              loop 0x230
00000240  59                pop cx
00000241  5F                pop di
00000242  5E                pop si
00000243  C3                ret
00000244  56                push si
00000245  57                push di
00000246  51                push cx
00000247  8ACD              mov cl,ch
00000249  32ED              xor ch,ch
0000024B  AC                lodsb
0000024C  22C3              and al,bl
0000024E  260805            or [es:di],al
00000251  47                inc di
00000252  86FB              xchg bh,bl
00000254  E2F5              loop 0x24b
00000256  59                pop cx
00000257  5F                pop di
00000258  5E                pop si
00000259  C3                ret
0000025A  2EF6065F4CFF      test byte [cs:0x4c5f],0xff
00000260  7432              jz 0x294
00000262  56                push si
00000263  57                push di
00000264  51                push cx
00000265  8ACD              mov cl,ch
00000267  32ED              xor ch,ch
00000269  51                push cx
0000026A  AC                lodsb
0000026B  8AE0              mov ah,al
0000026D  B203              mov dl,0x3
0000026F  B90400            mov cx,0x4
00000272  84E2              test dl,ah
00000274  7402              jz 0x278
00000276  0AE2              or ah,dl
00000278  02D2              add dl,dl
0000027A  02D2              add dl,dl
0000027C  E2F4              loop 0x272
0000027E  22E3              and ah,bl
00000280  F6D4              not ah
00000282  262025            and [es:di],ah
00000285  22C3              and al,bl
00000287  260805            or [es:di],al
0000028A  47                inc di
0000028B  86FB              xchg bh,bl
0000028D  59                pop cx
0000028E  E2D9              loop 0x269
00000290  59                pop cx
00000291  5F                pop di
00000292  5E                pop si
00000293  C3                ret
00000294  56                push si
00000295  57                push di
00000296  51                push cx
00000297  8ACD              mov cl,ch
00000299  32ED              xor ch,ch
0000029B  AC                lodsb
0000029C  22C3              and al,bl
0000029E  260805            or [es:di],al
000002A1  47                inc di
000002A2  86FB              xchg bh,bl
000002A4  E2F5              loop 0x29b
000002A6  59                pop cx
000002A7  5F                pop di
000002A8  5E                pop si
000002A9  C3                ret
000002AA  57                push di
000002AB  51                push cx
000002AC  F7D3              not bx
000002AE  8ACD              mov cl,ch
000002B0  32ED              xor ch,ch
000002B2  26201D            and [es:di],bl
000002B5  47                inc di
000002B6  86F2              xchg dh,dl
000002B8  86FB              xchg bh,bl
000002BA  E2F6              loop 0x2b2
000002BC  59                pop cx
000002BD  5F                pop di
000002BE  C3                ret
000002BF  00C0              add al,al
000002C1  000C              add [si],cl
000002C3  C0000C            rol byte [bx+si],byte 0xc
000002C6  0000              add [bx+si],al
000002C8  3000              xor [bx+si],al
000002CA  0330              add si,[bx+si]
000002CC  0003              add [bp+di],al
000002CE  0003              add [bp+di],al
000002D0  0030              add [bx+si],dh
000002D2  0000              add [bx+si],al
000002D4  0300              add ax,[bx+si]
000002D6  300C              xor [si],cl
000002D8  00C0              add al,al
000002DA  0000              add [bx+si],al
000002DC  0C00              or al,0x0
000002DE  C00E07BF66        ror byte [0xbf07],byte 0x66
000002E3  4C                dec sp
000002E4  33C0              xor ax,ax
000002E6  B99001            mov cx,0x190
000002E9  F3AB              rep stosw
000002EB  BF664C            mov di,0x4c66
000002EE  AC                lodsb
000002EF  3CFF              cmp al,0xff
000002F1  7501              jnz 0x2f4
000002F3  C3                ret
000002F4  2C20              sub al,0x20
000002F6  7301              jnc 0x2f9
000002F8  C3                ret
000002F9  7423              jz 0x31e
000002FB  56                push si
000002FC  57                push di
000002FD  32E4              xor ah,ah
000002FF  03C0              add ax,ax
00000301  03C0              add ax,ax
00000303  03C0              add ax,ax
00000305  030600F5          add ax,[0xf500]
00000309  8BF0              mov si,ax
0000030B  B90800            mov cx,0x8
0000030E  51                push cx
0000030F  AC                lodsb
00000310  E81000            call 0x323
00000313  268915            mov [es:di],dx
00000316  83C750            add di,0x50
00000319  59                pop cx
0000031A  E2F2              loop 0x30e
0000031C  5F                pop di
0000031D  5E                pop si
0000031E  83C702            add di,0x2
00000321  EBCB              jmp 0x2ee
00000323  B90800            mov cx,0x8
00000326  02C0              add al,al
00000328  13DB              adc bx,bx
0000032A  03DB              add bx,bx
0000032C  E2F8              loop 0x326
0000032E  8BD3              mov dx,bx
00000330  D1EA              shr dx,0x0
00000332  0BD3              or dx,bx
00000334  86F2              xchg dh,dl
00000336  C3                ret
00000337  1E                push ds
00000338  51                push cx
00000339  53                push bx
0000033A  B250              mov dl,0x50
0000033C  F6E2              mul dl
0000033E  05664C            add ax,0x4c66
00000341  8BF0              mov si,ax
00000343  02CB              add cl,bl
00000345  B050              mov al,0x50
00000347  F6E1              mul cl
00000349  050040            add ax,0x4000
0000034C  50                push ax
0000034D  56                push si
0000034E  8CC8              mov ax,cs
00000350  050020            add ax,0x2000
00000353  8ED8              mov ds,ax
00000355  1E                push ds
00000356  07                pop es
00000357  BF0040            mov di,0x4000
0000035A  BE5040            mov si,0x4050
0000035D  B9D81F            mov cx,0x1fd8
00000360  F3A5              rep movsw
00000362  5E                pop si
00000363  5F                pop di
00000364  0E                push cs
00000365  1F                pop ds
00000366  B92800            mov cx,0x28
00000369  F3A5              rep movsw
0000036B  5B                pop bx
0000036C  53                push bx
0000036D  E8C018            call 0x1c30
00000370  8BF8              mov di,ax
00000372  5B                pop bx
00000373  B050              mov al,0x50
00000375  F6E3              mul bl
00000377  8ADF              mov bl,bh
00000379  32FF              xor bh,bh
0000037B  03C3              add ax,bx
0000037D  8BF0              mov si,ax
0000037F  83C600            add si,0x0
00000382  8BE8              mov bp,ax
00000384  81C50040          add bp,0x4000
00000388  8CC8              mov ax,cs
0000038A  050020            add ax,0x2000
0000038D  8ED8              mov ds,ax
0000038F  B800B0            mov ax,0xb000
00000392  8EC0              mov es,ax
00000394  59                pop cx
00000395  33DB              xor bx,bx
00000397  8ADD              mov bl,ch
00000399  32ED              xor ch,ch
0000039B  51                push cx
0000039C  E81A00            call 0x3b9
0000039F  81C70020          add di,0x2000
000003A3  81FF0060          cmp di,0x6000
000003A7  7207              jc 0x3b0
000003A9  E80D00            call 0x3b9
000003AC  81C75AA0          add di,0xa05a
000003B0  03EB              add bp,bx
000003B2  03F3              add si,bx
000003B4  59                pop cx
000003B5  E2E4              loop 0x39b
000003B7  1F                pop ds
000003B8  C3                ret
000003B9  57                push di
000003BA  56                push si
000003BB  55                push bp
000003BC  8BCB              mov cx,bx
000003BE  D1E9              shr cx,0x0
000003C0  AD                lodsw
000003C1  3E0B4600          or ax,[ds:bp+0x0]
000003C5  AB                stosw
000003C6  45                inc bp
000003C7  45                inc bp
000003C8  E2F6              loop 0x3c0
000003CA  5D                pop bp
000003CB  5E                pop si
000003CC  5F                pop di
000003CD  C3                ret
000003CE  1E                push ds
000003CF  50                push ax
000003D0  53                push bx
000003D1  51                push cx
000003D2  8AC5              mov al,ch
000003D4  F6E1              mul cl
000003D6  8BE8              mov bp,ax
000003D8  06                push es
000003D9  1F                pop ds
000003DA  8BF7              mov si,di
000003DC  8CC8              mov ax,cs
000003DE  050030            add ax,0x3000
000003E1  8EC0              mov es,ax
000003E3  BF0000            mov di,0x0
000003E6  2EC7065A4C0000    mov word [cs:0x4c5a],0x0
000003ED  8BCD              mov cx,bp
000003EF  D1E9              shr cx,0x0
000003F1  03ED              add bp,bp
000003F3  3E8B02            mov ax,[ds:bp+si]
000003F6  2EA3584C          mov [cs:0x4c58],ax
000003FA  D1ED              shr bp,0x0
000003FC  3E8B02            mov ax,[ds:bp+si]
000003FF  2EA3564C          mov [cs:0x4c56],ax
00000403  AD                lodsw
00000404  2EA3544C          mov [cs:0x4c54],ax
00000408  E88117            call 0x1b8c
0000040B  AB                stosw
0000040C  E2E3              loop 0x3f1
0000040E  59                pop cx
0000040F  5B                pop bx
00000410  58                pop ax
00000411  1F                pop ds
00000412  1E                push ds
00000413  E81A18            call 0x1c30
00000416  8BF8              mov di,ax
00000418  BE0000            mov si,0x0
0000041B  06                push es
0000041C  1F                pop ds
0000041D  B800B0            mov ax,0xb000
00000420  8EC0              mov es,ax
00000422  33DB              xor bx,bx
00000424  8ADD              mov bl,ch
00000426  32ED              xor ch,ch
00000428  51                push cx
00000429  56                push si
0000042A  57                push di
0000042B  8BCB              mov cx,bx
0000042D  F3A4              rep movsb
0000042F  5F                pop di
00000430  5E                pop si
00000431  81C70020          add di,0x2000
00000435  81FF0060          cmp di,0x6000
00000439  720C              jc 0x447
0000043B  56                push si
0000043C  57                push di
0000043D  8BCB              mov cx,bx
0000043F  F3A4              rep movsb
00000441  5F                pop di
00000442  5E                pop si
00000443  81C75AA0          add di,0xa05a
00000447  03F3              add si,bx
00000449  59                pop cx
0000044A  E2DC              loop 0x428
0000044C  1F                pop ds
0000044D  C3                ret
0000044E  0E                push cs
0000044F  07                pop es
00000450  BF00A0            mov di,0xa000
00000453  33D2              xor dx,dx
00000455  B90900            mov cx,0x9
00000458  B001              mov al,0x1
0000045A  AA                stosb
0000045B  8BC2              mov ax,dx
0000045D  AB                stosw
0000045E  A5                movsw
0000045F  AB                stosw
00000460  B80101            mov ax,0x101
00000463  AB                stosw
00000464  A4                movsb
00000465  A4                movsb
00000466  32C0              xor al,al
00000468  AA                stosb
00000469  AA                stosb
0000046A  A4                movsb
0000046B  A4                movsb
0000046C  81C2C000          add dx,0xc0
00000470  E2E6              loop 0x458
00000472  C6061AFF00        mov byte [0xff1a],0x0
00000477  BE00A0            mov si,0xa000
0000047A  B90900            mov cx,0x9
0000047D  51                push cx
0000047E  F604FF            test byte [si],0xff
00000481  747A              jz 0x4fd
00000483  8A440D            mov al,[si+0xd]
00000486  3A440E            cmp al,[si+0xe]
00000489  740C              jz 0x497
0000048B  FE440C            inc byte [si+0xc]
0000048E  F6440C01          test byte [si+0xc],0x1
00000492  7503              jnz 0x497
00000494  FE440D            inc byte [si+0xd]
00000497  33DB              xor bx,bx
00000499  8A5C0D            mov bl,[si+0xd]
0000049C  03DB              add bx,bx
0000049E  03DB              add bx,bx
000004A0  8B8F4736          mov cx,[bx+0x3647]
000004A4  894C07            mov [si+0x7],cx
000004A7  8A4404            mov al,[si+0x4]
000004AA  02440A            add al,[si+0xa]
000004AD  884404            mov [si+0x4],al
000004B0  8AD0              mov dl,al
000004B2  8A4403            mov al,[si+0x3]
000004B5  024409            add al,[si+0x9]
000004B8  884403            mov [si+0x3],al
000004BB  32F6              xor dh,dh
000004BD  83C205            add dx,0x5
000004C0  52                push dx
000004C1  32E4              xor ah,ah
000004C3  051C00            add ax,0x1c
000004C6  B303              mov bl,0x3
000004C8  F6F3              div bl
000004CA  8ADC              mov bl,ah
000004CC  D0CB              ror bl,0x0
000004CE  D0CB              ror bl,0x0
000004D0  D0CB              ror bl,0x0
000004D2  80E360            and bl,0x60
000004D5  B45A              mov ah,0x5a
000004D7  F6E4              mul ah
000004D9  02E3              add ah,bl
000004DB  5A                pop dx
000004DC  03C2              add ax,dx
000004DE  894405            mov [si+0x5],ax
000004E1  8BF8              mov di,ax
000004E3  8B6C01            mov bp,[si+0x1]
000004E6  1E                push ds
000004E7  56                push si
000004E8  B800B0            mov ax,0xb000
000004EB  8ED8              mov ds,ax
000004ED  8CC8              mov ax,cs
000004EF  050030            add ax,0x3000
000004F2  8EC0              mov es,ax
000004F4  8BF7              mov si,di
000004F6  8BFD              mov di,bp
000004F8  E8A600            call 0x5a1
000004FB  5E                pop si
000004FC  1F                pop ds
000004FD  59                pop cx
000004FE  83C60F            add si,0xf
00000501  E202              loop 0x505
00000503  EB03              jmp 0x508
00000505  E975FF            jmp 0x47d
00000508  BE00A0            mov si,0xa000
0000050B  B90900            mov cx,0x9
0000050E  51                push cx
0000050F  2EF604FF          test byte [cs:si],0xff
00000513  7439              jz 0x54e
00000515  33DB              xor bx,bx
00000517  8A5C0D            mov bl,[si+0xd]
0000051A  03DB              add bx,bx
0000051C  03DB              add bx,bx
0000051E  8BAF4536          mov bp,[bx+0x3645]
00000522  8B4C07            mov cx,[si+0x7]
00000525  8A14              mov dl,[si]
00000527  C60400            mov byte [si],0x0
0000052A  8B4403            mov ax,[si+0x3]
0000052D  80FC4B            cmp ah,0x4b
00000530  731C              jnc 0x54e
00000532  3CA0              cmp al,0xa0
00000534  7318              jnc 0x54e
00000536  8814              mov [si],dl
00000538  8B7C05            mov di,[si+0x5]
0000053B  1E                push ds
0000053C  56                push si
0000053D  B800B0            mov ax,0xb000
00000540  8EC0              mov es,ax
00000542  2E8E1E2CFF        mov ds,word [cs:0xff2c]
00000547  8BF5              mov si,bp
00000549  E8A500            call 0x5f1
0000054C  5E                pop si
0000054D  1F                pop ds
0000054E  59                pop cx
0000054F  83C60F            add si,0xf
00000552  E2BA              loop 0x50e
00000554  2E803E1AFF1E      cmp byte [cs:0xff1a],0x1e
0000055A  72F8              jc 0x554
0000055C  2EC6061AFF00      mov byte [cs:0xff1a],0x0
00000562  BE00A0            mov si,0xa000
00000565  B90900            mov cx,0x9
00000568  51                push cx
00000569  8B6C01            mov bp,[si+0x1]
0000056C  8B7C05            mov di,[si+0x5]
0000056F  8B4C07            mov cx,[si+0x7]
00000572  1E                push ds
00000573  56                push si
00000574  B800B0            mov ax,0xb000
00000577  8EC0              mov es,ax
00000579  8CC8              mov ax,cs
0000057B  050030            add ax,0x3000
0000057E  8ED8              mov ds,ax
00000580  8BF5              mov si,bp
00000582  E83D00            call 0x5c2
00000585  5E                pop si
00000586  1F                pop ds
00000587  59                pop cx
00000588  83C60F            add si,0xf
0000058B  E2DB              loop 0x568
0000058D  BE00A0            mov si,0xa000
00000590  B90900            mov cx,0x9
00000593  F604FF            test byte [si],0xff
00000596  7403              jz 0x59b
00000598  E9DCFE            jmp 0x477
0000059B  83C60F            add si,0xf
0000059E  E2F3              loop 0x593
000005A0  C3                ret
000005A1  56                push si
000005A2  51                push cx
000005A3  56                push si
000005A4  51                push cx
000005A5  8ACD              mov cl,ch
000005A7  32ED              xor ch,ch
000005A9  F3A4              rep movsb
000005AB  59                pop cx
000005AC  5E                pop si
000005AD  81C60020          add si,0x2000
000005B1  81FE0060          cmp si,0x6000
000005B5  7204              jc 0x5bb
000005B7  81C65AA0          add si,0xa05a
000005BB  FEC9              dec cl
000005BD  75E4              jnz 0x5a3
000005BF  59                pop cx
000005C0  5E                pop si
000005C1  C3                ret
000005C2  57                push di
000005C3  51                push cx
000005C4  51                push cx
000005C5  8ACD              mov cl,ch
000005C7  32ED              xor ch,ch
000005C9  56                push si
000005CA  57                push di
000005CB  51                push cx
000005CC  F3A4              rep movsb
000005CE  59                pop cx
000005CF  5F                pop di
000005D0  5E                pop si
000005D1  81C70020          add di,0x2000
000005D5  81FF0060          cmp di,0x6000
000005D9  720C              jc 0x5e7
000005DB  56                push si
000005DC  57                push di
000005DD  51                push cx
000005DE  F3A4              rep movsb
000005E0  59                pop cx
000005E1  5F                pop di
000005E2  5E                pop si
000005E3  81C75AA0          add di,0xa05a
000005E7  03F1              add si,cx
000005E9  59                pop cx
000005EA  FEC9              dec cl
000005EC  75D6              jnz 0x5c4
000005EE  59                pop cx
000005EF  5F                pop di
000005F0  C3                ret
000005F1  57                push di
000005F2  51                push cx
000005F3  8AC5              mov al,ch
000005F5  F6E1              mul cl
000005F7  8BD8              mov bx,ax
000005F9  2EC7065A4C0000    mov word [cs:0x4c5a],0x0
00000600  2EC706584C0000    mov word [cs:0x4c58],0x0
00000607  51                push cx
00000608  8ACD              mov cl,ch
0000060A  32ED              xor ch,ch
0000060C  E81B00            call 0x62a
0000060F  81C70020          add di,0x2000
00000613  81FF0060          cmp di,0x6000
00000617  7207              jc 0x620
00000619  E80E00            call 0x62a
0000061C  81C75AA0          add di,0xa05a
00000620  03F1              add si,cx
00000622  59                pop cx
00000623  FEC9              dec cl
00000625  75E0              jnz 0x607
00000627  59                pop cx
00000628  5F                pop di
00000629  C3                ret
0000062A  57                push di
0000062B  56                push si
0000062C  51                push cx
0000062D  32E4              xor ah,ah
0000062F  8A00              mov al,[bx+si]
00000631  2EA3564C          mov [cs:0x4c56],ax
00000635  AC                lodsb
00000636  2EA3544C          mov [cs:0x4c54],ax
0000063A  53                push bx
0000063B  E84E15            call 0x1b8c
0000063E  5B                pop bx
0000063F  260805            or [es:di],al
00000642  47                inc di
00000643  E2E8              loop 0x62d
00000645  59                pop cx
00000646  5E                pop si
00000647  5F                pop di
00000648  C3                ret
00000649  00902006          add [bx+si+0x620],dl
0000064D  8091200600        adc byte [bx+di+0x620],0x0
00000652  93                xchg ax,bx
00000653  20068094          and [0x9480],al
00000657  20060096          and [0x9600],al
0000065B  1804              sbb [si],al
0000065D  C096180480        rcl byte [bp+0x418],byte 0x80
00000662  97                xchg ax,di
00000663  1804              sbb [si],al
00000665  40                inc ax
00000666  98                cbw
00000667  1804              sbb [si],al
00000669  1E                push ds
0000066A  53                push bx
0000066B  32E4              xor ah,ah
0000066D  BAC00C            mov dx,0xcc0
00000670  F7E2              mul dx
00000672  0540AB            add ax,0xab40
00000675  2E8E1E2CFF        mov ds,word [cs:0xff2c]
0000067A  8BF0              mov si,ax
0000067C  8CC8              mov ax,cs
0000067E  050030            add ax,0x3000
00000681  8EC0              mov es,ax
00000683  BF0000            mov di,0x0
00000686  2EC7065A4C0000    mov word [cs:0x4c5a],0x0
0000068D  2EC706584C0000    mov word [cs:0x4c58],0x0
00000694  B93003            mov cx,0x330
00000697  8B846006          mov ax,[si+0x660]
0000069B  2EA3544C          mov [cs:0x4c54],ax
0000069F  AD                lodsw
000006A0  2EA3564C          mov [cs:0x4c56],ax
000006A4  E8E514            call 0x1b8c
000006A7  AB                stosw
000006A8  E2ED              loop 0x697
000006AA  5B                pop bx
000006AB  1F                pop ds
000006AC  BF0000            mov di,0x0
000006AF  B93022            mov cx,0x2230
000006B2  E95DFD            jmp 0x412
000006B5  1E                push ds
000006B6  53                push bx
000006B7  32E4              xor ah,ah
000006B9  BA8004            mov dx,0x480
000006BC  F7E2              mul dx
000006BE  05C097            add ax,0x97c0
000006C1  2E8E1E2CFF        mov ds,word [cs:0xff2c]
000006C6  8BF0              mov si,ax
000006C8  8CC8              mov ax,cs
000006CA  050030            add ax,0x3000
000006CD  8EC0              mov es,ax
000006CF  BF0000            mov di,0x0
000006D2  2EC7065A4C0000    mov word [cs:0x4c5a],0x0
000006D9  2EC706584C0000    mov word [cs:0x4c58],0x0
000006E0  B92001            mov cx,0x120
000006E3  8B844002          mov ax,[si+0x240]
000006E7  2EA3564C          mov [cs:0x4c56],ax
000006EB  AD                lodsw
000006EC  2EA3544C          mov [cs:0x4c54],ax
000006F0  E89914            call 0x1b8c
000006F3  AB                stosw
000006F4  E2ED              loop 0x6e3
000006F6  5B                pop bx
000006F7  1F                pop ds
000006F8  BF0000            mov di,0x0
000006FB  B92012            mov cx,0x1220
000006FE  E911FD            jmp 0x412
00000701  33DB              xor bx,bx
00000703  B91900            mov cx,0x19
00000706  51                push cx
00000707  B92200            mov cx,0x22
0000070A  51                push cx
0000070B  AC                lodsb
0000070C  53                push bx
0000070D  1E                push ds
0000070E  56                push si
0000070F  E81000            call 0x722
00000712  5E                pop si
00000713  1F                pop ds
00000714  5B                pop bx
00000715  FEC7              inc bh
00000717  59                pop cx
00000718  E2F0              loop 0x70a
0000071A  32FF              xor bh,bh
0000071C  FEC3              inc bl
0000071E  59                pop cx
0000071F  E2E5              loop 0x706
00000721  C3                ret
00000722  2E8E1E2CFF        mov ds,word [cs:0xff2c]
00000727  8CCA              mov dx,cs
00000729  81C20020          add dx,0x2000
0000072D  8EC2              mov es,dx
0000072F  32E4              xor ah,ah
00000731  2C28              sub al,0x28
00000733  7204              jc 0x739
00000735  FEC4              inc ah
00000737  EBF8              jmp 0x731
00000739  0428              add al,0x28
0000073B  8AC8              mov cl,al
0000073D  8AC4              mov al,ah
0000073F  32E4              xor ah,ah
00000741  BA4001            mov dx,0x140
00000744  F7E2              mul dx
00000746  32ED              xor ch,ch
00000748  03C1              add ax,cx
0000074A  050040            add ax,0x4000
0000074D  50                push ax
0000074E  8BD3              mov dx,bx
00000750  32F6              xor dh,dh
00000752  B81001            mov ax,0x110
00000755  F7E2              mul dx
00000757  8AD7              mov dl,bh
00000759  32F6              xor dh,dh
0000075B  03C2              add ax,dx
0000075D  050000            add ax,0x0
00000760  8BF8              mov di,ax
00000762  5E                pop si
00000763  B90300            mov cx,0x3
00000766  51                push cx
00000767  57                push di
00000768  56                push si
00000769  B90800            mov cx,0x8
0000076C  A4                movsb
0000076D  83C721            add di,0x21
00000770  83C627            add si,0x27
00000773  E2F7              loop 0x76c
00000775  5E                pop si
00000776  5F                pop di
00000777  81C7901A          add di,0x1a90
0000077B  81C64006          add si,0x640
0000077F  59                pop cx
00000780  E2E4              loop 0x766
00000782  C3                ret
00000783  2EC7065A4C0000    mov word [cs:0x4c5a],0x0
0000078A  1E                push ds
0000078B  8CCA              mov dx,cs
0000078D  8EC2              mov es,dx
0000078F  81C20020          add dx,0x2000
00000793  8EDA              mov ds,dx
00000795  50                push ax
00000796  B222              mov dl,0x22
00000798  F6E2              mul dl
0000079A  050000            add ax,0x0
0000079D  8BF0              mov si,ax
0000079F  56                push si
000007A0  BF864F            mov di,0x4f86
000007A3  B92200            mov cx,0x22
000007A6  F3A4              rep movsb
000007A8  81C66E1A          add si,0x1a6e
000007AC  B92200            mov cx,0x22
000007AF  F3A4              rep movsb
000007B1  BF864F            mov di,0x4f86
000007B4  B94400            mov cx,0x44
000007B7  268A05            mov al,[es:di]
000007BA  BA0800            mov dx,0x8
000007BD  D0C8              ror al,0x0
000007BF  12E4              adc ah,ah
000007C1  4A                dec dx
000007C2  75F9              jnz 0x7bd
000007C4  268825            mov [es:di],ah
000007C7  47                inc di
000007C8  E2ED              loop 0x7b7
000007CA  5E                pop si
000007CB  58                pop ax
000007CC  8AD8              mov bl,al
000007CE  32FF              xor bh,bh
000007D0  E85D14            call 0x1c30
000007D3  8BF8              mov di,ax
000007D5  B800B0            mov ax,0xb000
000007D8  8EC0              mov es,ax
000007DA  57                push di
000007DB  57                push di
000007DC  56                push si
000007DD  B91100            mov cx,0x11
000007E0  AD                lodsw
000007E1  2EA3564C          mov [cs:0x4c56],ax
000007E5  8B848E1A          mov ax,[si+0x1a8e]
000007E9  2EA3584C          mov [cs:0x4c58],ax
000007ED  2EA3544C          mov [cs:0x4c54],ax
000007F1  E89813            call 0x1b8c
000007F4  260905            or [es:di],ax
000007F7  47                inc di
000007F8  47                inc di
000007F9  E2E5              loop 0x7e0
000007FB  5E                pop si
000007FC  5F                pop di
000007FD  81C70020          add di,0x2000
00000801  81FF0060          cmp di,0x6000
00000805  721E              jc 0x825
00000807  B91100            mov cx,0x11
0000080A  AD                lodsw
0000080B  2EA3564C          mov [cs:0x4c56],ax
0000080F  8B848E1A          mov ax,[si+0x1a8e]
00000813  2EA3584C          mov [cs:0x4c58],ax
00000817  2EA3544C          mov [cs:0x4c54],ax
0000081B  E86E13            call 0x1b8c
0000081E  260905            or [es:di],ax
00000821  47                inc di
00000822  47                inc di
00000823  E2E5              loop 0x80a
00000825  5F                pop di
00000826  83C74E            add di,0x4e
00000829  0E                push cs
0000082A  1F                pop ds
0000082B  57                push di
0000082C  BE864F            mov si,0x4f86
0000082F  B91100            mov cx,0x11
00000832  AD                lodsw
00000833  86E0              xchg ah,al
00000835  2EA3564C          mov [cs:0x4c56],ax
00000839  8B4420            mov ax,[si+0x20]
0000083C  86E0              xchg ah,al
0000083E  2EA3584C          mov [cs:0x4c58],ax
00000842  2EA3544C          mov [cs:0x4c54],ax
00000846  E84313            call 0x1b8c
00000849  260905            or [es:di],ax
0000084C  4F                dec di
0000084D  4F                dec di
0000084E  E2E2              loop 0x832
00000850  5F                pop di
00000851  81C70020          add di,0x2000
00000855  81FF0060          cmp di,0x6000
00000859  7224              jc 0x87f
0000085B  BE864F            mov si,0x4f86
0000085E  B91100            mov cx,0x11
00000861  AD                lodsw
00000862  86E0              xchg ah,al
00000864  2EA3564C          mov [cs:0x4c56],ax
00000868  8B4420            mov ax,[si+0x20]
0000086B  86E0              xchg ah,al
0000086D  2EA3584C          mov [cs:0x4c58],ax
00000871  2EA3544C          mov [cs:0x4c54],ax
00000875  E81413            call 0x1b8c
00000878  260905            or [es:di],ax
0000087B  4F                dec di
0000087C  4F                dec di
0000087D  E2E2              loop 0x861
0000087F  1F                pop ds
00000880  C3                ret
00000881  8BD8              mov bx,ax
00000883  8A87C23B          mov al,[bx+0x3bc2]
00000887  A25D4C            mov [0x4c5d],al
0000088A  B800B0            mov ax,0xb000
0000088D  8EC0              mov es,ax
0000088F  BFF544            mov di,0x44f5
00000892  BECB3A            mov si,0x3acb
00000895  AC                lodsb
00000896  0AC0              or al,al
00000898  7413              jz 0x8ad
0000089A  E8FE00            call 0x99b
0000089D  81C75A20          add di,0x205a
000008A1  81FF0060          cmp di,0x6000
000008A5  7204              jc 0x8ab
000008A7  81C75AA0          add di,0xa05a
000008AB  EBE8              jmp 0x895
000008AD  81EF5920          sub di,0x2059
000008B1  7304              jnc 0x8b7
000008B3  81C7A65F          add di,0x5fa6
000008B7  AC                lodsb
000008B8  0AC0              or al,al
000008BA  7406              jz 0x8c2
000008BC  E8DC00            call 0x99b
000008BF  47                inc di
000008C0  EBF5              jmp 0x8b7
000008C2  81EF5B20          sub di,0x205b
000008C6  7304              jnc 0x8cc
000008C8  81C7A65F          add di,0x5fa6
000008CC  AC                lodsb
000008CD  0AC0              or al,al
000008CF  740F              jz 0x8e0
000008D1  E8C700            call 0x99b
000008D4  81EF5A20          sub di,0x205a
000008D8  7304              jnc 0x8de
000008DA  81C7A65F          add di,0x5fa6
000008DE  EBEC              jmp 0x8cc
000008E0  81C75920          add di,0x2059
000008E4  81FF0060          cmp di,0x6000
000008E8  7204              jc 0x8ee
000008EA  81C75AA0          add di,0xa05a
000008EE  AC                lodsb
000008EF  0AC0              or al,al
000008F1  7406              jz 0x8f9
000008F3  E8A500            call 0x99b
000008F6  4F                dec di
000008F7  EBF5              jmp 0x8ee
000008F9  81C75B20          add di,0x205b
000008FD  81FF0060          cmp di,0x6000
00000901  7204              jc 0x907
00000903  81C75AA0          add di,0xa05a
00000907  BE8F3B            mov si,0x3b8f
0000090A  2EC6061AFF00      mov byte [cs:0xff1a],0x0
00000910  AC                lodsb
00000911  0AC0              or al,al
00000913  7501              jnz 0x916
00000915  C3                ret
00000916  33C9              xor cx,cx
00000918  8AC8              mov cl,al
0000091A  51                push cx
0000091B  B018              mov al,0x18
0000091D  E87B00            call 0x99b
00000920  81C75A20          add di,0x205a
00000924  81FF0060          cmp di,0x6000
00000928  7204              jc 0x92e
0000092A  81C75AA0          add di,0xa05a
0000092E  59                pop cx
0000092F  E2E9              loop 0x91a
00000931  81EF5A20          sub di,0x205a
00000935  7304              jnc 0x93b
00000937  81C7A65F          add di,0x5fa6
0000093B  AC                lodsb
0000093C  0AC0              or al,al
0000093E  7501              jnz 0x941
00000940  C3                ret
00000941  33C9              xor cx,cx
00000943  8AC8              mov cl,al
00000945  51                push cx
00000946  B018              mov al,0x18
00000948  E85000            call 0x99b
0000094B  47                inc di
0000094C  59                pop cx
0000094D  E2F6              loop 0x945
0000094F  4F                dec di
00000950  AC                lodsb
00000951  0AC0              or al,al
00000953  7501              jnz 0x956
00000955  C3                ret
00000956  33C9              xor cx,cx
00000958  8AC8              mov cl,al
0000095A  51                push cx
0000095B  B018              mov al,0x18
0000095D  E83B00            call 0x99b
00000960  81EF5A20          sub di,0x205a
00000964  7304              jnc 0x96a
00000966  81C7A65F          add di,0x5fa6
0000096A  59                pop cx
0000096B  E2ED              loop 0x95a
0000096D  81C75A20          add di,0x205a
00000971  81FF0060          cmp di,0x6000
00000975  7204              jc 0x97b
00000977  81C75AA0          add di,0xa05a
0000097B  AC                lodsb
0000097C  0AC0              or al,al
0000097E  7501              jnz 0x981
00000980  C3                ret
00000981  33C9              xor cx,cx
00000983  8AC8              mov cl,al
00000985  51                push cx
00000986  B018              mov al,0x18
00000988  E81000            call 0x99b
0000098B  4F                dec di
0000098C  59                pop cx
0000098D  E2F6              loop 0x985
0000098F  47                inc di
00000990  2E803E1AFF0C      cmp byte [cs:0xff1a],0xc
00000996  72F8              jc 0x990
00000998  E96FFF            jmp 0x90a
0000099B  56                push si
0000099C  57                push di
0000099D  FEC8              dec al
0000099F  32E4              xor ah,ah
000009A1  03C0              add ax,ax
000009A3  03C0              add ax,ax
000009A5  03C0              add ax,ax
000009A7  050B3A            add ax,0x3a0b
000009AA  8BF0              mov si,ax
000009AC  AC                lodsb
000009AD  2E22065D4C        and al,[cs:0x4c5d]
000009B2  0A4403            or al,[si+0x3]
000009B5  AA                stosb
000009B6  81C7FF1F          add di,0x1fff
000009BA  81FF0060          cmp di,0x6000
000009BE  7205              jc 0x9c5
000009C0  AA                stosb
000009C1  81C759A0          add di,0xa059
000009C5  AC                lodsb
000009C6  2E22065D4C        and al,[cs:0x4c5d]
000009CB  0A4403            or al,[si+0x3]
000009CE  AA                stosb
000009CF  81C7FF1F          add di,0x1fff
000009D3  81FF0060          cmp di,0x6000
000009D7  7205              jc 0x9de
000009D9  AA                stosb
000009DA  81C759A0          add di,0xa059
000009DE  AC                lodsb
000009DF  2E22065D4C        and al,[cs:0x4c5d]
000009E4  0A4403            or al,[si+0x3]
000009E7  AA                stosb
000009E8  81C7FF1F          add di,0x1fff
000009EC  81FF0060          cmp di,0x6000
000009F0  7205              jc 0x9f7
000009F2  AA                stosb
000009F3  81C759A0          add di,0xa059
000009F7  AC                lodsb
000009F8  2E22065D4C        and al,[cs:0x4c5d]
000009FD  0A4403            or al,[si+0x3]
00000A00  AA                stosb
00000A01  81C7FF1F          add di,0x1fff
00000A05  81FF0060          cmp di,0x6000
00000A09  7201              jc 0xa0c
00000A0B  AA                stosb
00000A0C  5F                pop di
00000A0D  5E                pop si
00000A0E  C3                ret
00000A0F  0000              add [bx+si],al
00000A11  0003              add [bp+di],al
00000A13  80808A8803        add byte [bx+si-0x7776],0x3
00000A18  0303              add ax,[bp+di]
00000A1A  03888888          add cx,[bx+si-0x7778]
00000A1E  8803              mov [bp+di],al
00000A20  0303              add ax,[bp+di]
00000A22  03888888          add cx,[bx+si-0x7778]
00000A26  A800              test al,0x0
00000A28  0000              add [bx+si],al
00000A2A  FF00              inc word [bx+si]
00000A2C  00AA0000          add [bp+si+0x0],ch
00000A30  0000              add [bx+si],al
00000A32  FF02              inc word [bp+si]
00000A34  02AA0000          add ch,[bp+si+0x0]
00000A38  0000              add [bx+si],al
00000A3A  FF8080AA          inc word [bx+si-0x5580]
00000A3E  0000              add [bx+si],al
00000A40  0000              add [bx+si],al
00000A42  C00202            rol byte [bp+si],byte 0x2
00000A45  A222C0            mov [0xc022],al
00000A48  C0C0C0            rol al,byte 0xc0
00000A4B  2222              and ah,[bp+si]
00000A4D  2222              and ah,[bp+si]
00000A4F  C0C0C0            rol al,byte 0xc0
00000A52  C02222            shl byte [bp+si],byte 0x22
00000A55  2222              and ah,[bp+si]
00000A57  C0C0C0            rol al,byte 0xc0
00000A5A  C02A02            shr byte [bp+si],byte 0x2
00000A5D  0202              add al,[bp+si]
00000A5F  0303              add ax,[bp+di]
00000A61  0303              add ax,[bp+di]
00000A63  A888              test al,0x88
00000A65  88880303          mov [bx+si+0x303],cl
00000A69  0303              add ax,[bp+di]
00000A6B  88888888          mov [bx+si-0x7778],cl
00000A6F  0300              add ax,[bx+si]
00000A71  0000              add [bx+si],al
00000A73  888A8080          mov [bp+si-0x7f80],cl
00000A77  FF00              inc word [bx+si]
00000A79  0000              add [bx+si],al
00000A7B  00AA0000          add [bp+si+0x0],ch
00000A7F  FF00              inc word [bx+si]
00000A81  0000              add [bx+si],al
00000A83  00AA0202          add [bp+si+0x202],ch
00000A87  FF00              inc word [bx+si]
00000A89  0000              add [bx+si],al
00000A8B  00AA8080          add [bp+si-0x7f80],ch
00000A8F  C0C0C0            rol al,byte 0xc0
00000A92  C02A22            shr byte [bp+si],byte 0x22
00000A95  2222              and ah,[bp+si]
00000A97  C0C0C0            rol al,byte 0xc0
00000A9A  C02222            shl byte [bp+si],byte 0x22
00000A9D  2222              and ah,[bp+si]
00000A9F  C00000            rol byte [bx+si],byte 0x0
00000AA2  0022              add [bp+si],ah
00000AA4  A20202            mov [0x202],al
00000AA7  0000              add [bx+si],al
00000AA9  FF                db 0xff
00000AAA  FF00              inc word [bx+si]
00000AAC  0000              add [bx+si],al
00000AAE  00FF              add bh,bh
00000AB0  FF00              inc word [bx+si]
00000AB2  0000              add [bx+si],al
00000AB4  0000              add [bx+si],al
00000AB6  0003              add [bp+di],al
00000AB8  0303              add ax,[bp+di]
00000ABA  03808080          add ax,[bx+si-0x7f80]
00000ABE  80C0C0            add al,0xc0
00000AC1  C0C002            rol al,byte 0x2
00000AC4  0202              add al,[bp+si]
00000AC6  02FF              add bh,bh
00000AC8  FF                db 0xff
00000AC9  FF                db 0xff
00000ACA  FF00              inc word [bx+si]
00000ACC  0000              add [bx+si],al
00000ACE  0001              add [bx+di],al
00000AD0  0203              add al,[bp+di]
00000AD2  16                push ss
00000AD3  16                push ss
00000AD4  16                push ss
00000AD5  16                push ss
00000AD6  16                push ss
00000AD7  16                push ss
00000AD8  16                push ss
00000AD9  16                push ss
00000ADA  16                push ss
00000ADB  16                push ss
00000ADC  16                push ss
00000ADD  16                push ss
00000ADE  16                push ss
00000ADF  16                push ss
00000AE0  16                push ss
00000AE1  16                push ss
00000AE2  16                push ss
00000AE3  16                push ss
00000AE4  16                push ss
00000AE5  16                push ss
00000AE6  0B0C              or cx,[si]
00000AE8  0D000E            or ax,0xe00
00000AEB  0F1515            unpckhps xmm2,oword [di]
00000AEE  151515            adc ax,0x1515
00000AF1  151515            adc ax,0x1515
00000AF4  151515            adc ax,0x1515
00000AF7  151515            adc ax,0x1515
00000AFA  151515            adc ax,0x1515
00000AFD  151515            adc ax,0x1515
00000B00  151515            adc ax,0x1515
00000B03  151515            adc ax,0x1515
00000B06  151515            adc ax,0x1515
00000B09  151515            adc ax,0x1515
00000B0C  151515            adc ax,0x1515
00000B0F  151515            adc ax,0x1515
00000B12  151515            adc ax,0x1515
00000B15  151515            adc ax,0x1515
00000B18  151515            adc ax,0x1515
00000B1B  151515            adc ax,0x1515
00000B1E  151515            adc ax,0x1515
00000B21  151515            adc ax,0x1515
00000B24  151515            adc ax,0x1515
00000B27  151515            adc ax,0x1515
00000B2A  151515            adc ax,0x1515
00000B2D  15100E            adc ax,0xe10
00000B30  1300              adc ax,[bx+si]
00000B32  1211              adc dl,[bx+di]
00000B34  17                pop ss
00000B35  17                pop ss
00000B36  17                pop ss
00000B37  17                pop ss
00000B38  17                pop ss
00000B39  17                pop ss
00000B3A  17                pop ss
00000B3B  17                pop ss
00000B3C  17                pop ss
00000B3D  17                pop ss
00000B3E  17                pop ss
00000B3F  17                pop ss
00000B40  17                pop ss
00000B41  17                pop ss
00000B42  17                pop ss
00000B43  17                pop ss
00000B44  17                pop ss
00000B45  17                pop ss
00000B46  17                pop ss
00000B47  0A09              or cl,[bx+di]
00000B49  0807              or [bx],al
00000B4B  0004              add [si],al
00000B4D  06                push es
00000B4E  1414              adc al,0x14
00000B50  1414              adc al,0x14
00000B52  1414              adc al,0x14
00000B54  1414              adc al,0x14
00000B56  1414              adc al,0x14
00000B58  1414              adc al,0x14
00000B5A  1414              adc al,0x14
00000B5C  1414              adc al,0x14
00000B5E  1414              adc al,0x14
00000B60  1414              adc al,0x14
00000B62  1414              adc al,0x14
00000B64  1414              adc al,0x14
00000B66  1414              adc al,0x14
00000B68  1414              adc al,0x14
00000B6A  1414              adc al,0x14
00000B6C  1414              adc al,0x14
00000B6E  1414              adc al,0x14
00000B70  1414              adc al,0x14
00000B72  1414              adc al,0x14
00000B74  1414              adc al,0x14
00000B76  1414              adc al,0x14
00000B78  1414              adc al,0x14
00000B7A  1414              adc al,0x14
00000B7C  1414              adc al,0x14
00000B7E  1414              adc al,0x14
00000B80  1414              adc al,0x14
00000B82  1414              adc al,0x14
00000B84  1414              adc al,0x14
00000B86  1414              adc al,0x14
00000B88  1414              adc al,0x14
00000B8A  1414              adc al,0x14
00000B8C  1414              adc al,0x14
00000B8E  1414              adc al,0x14
00000B90  050400            add ax,0x4
00000B93  184618            sbb [bp+0x18],al
00000B96  45                inc bp
00000B97  17                pop ss
00000B98  44                inc sp
00000B99  16                push ss
00000B9A  43                inc bx
00000B9B  154214            adc ax,0x1442
00000B9E  41                inc cx
00000B9F  134012            adc ax,[bx+si+0x12]
00000BA2  3F                aas
00000BA3  113E103D          adc [0x3d10],di
00000BA7  0F                db 0x0f
00000BA8  3C0E              cmp al,0xe
00000BAA  3B0D              cmp cx,[di]
00000BAC  3A0C              cmp cl,[si]
00000BAE  390B              cmp [bp+di],cx
00000BB0  380A              cmp [bp+si],cl
00000BB2  37                aaa
00000BB3  09360835          or [0x3508],si
00000BB7  07                pop es
00000BB8  3406              xor al,0x6
00000BBA  3305              xor ax,[di]
00000BBC  3204              xor al,[si]
00000BBE  3103              xor [bp+di],ax
00000BC0  3002              xor [bp+si],al
00000BC2  2F                das
00000BC3  012E0000          add [0x0],bp
00000BC7  AA                stosb
00000BC8  55                push bp
00000BC9  1E                push ds
00000BCA  2EA25F4C          mov [cs:0x4c5f],al
00000BCE  53                push bx
00000BCF  51                push cx
00000BD0  8AC5              mov al,ch
00000BD2  F6E1              mul cl
00000BD4  8BE8              mov bp,ax
00000BD6  06                push es
00000BD7  1F                pop ds
00000BD8  8BF7              mov si,di
00000BDA  8CC8              mov ax,cs
00000BDC  050030            add ax,0x3000
00000BDF  8EC0              mov es,ax
00000BE1  BF0000            mov di,0x0
00000BE4  2EC7065A4C0000    mov word [cs:0x4c5a],0x0
00000BEB  2EC706544C0000    mov word [cs:0x4c54],0x0
00000BF2  2EC706564C0000    mov word [cs:0x4c56],0x0
00000BF9  2EC706584C0000    mov word [cs:0x4c58],0x0
00000C00  8BCD              mov cx,bp
00000C02  D1E9              shr cx,0x0
00000C04  56                push si
00000C05  2EF6065F4C01      test byte [cs:0x4c5f],0x1
00000C0B  7408              jz 0xc15
00000C0D  8B04              mov ax,[si]
00000C0F  2EA3544C          mov [cs:0x4c54],ax
00000C13  03F5              add si,bp
00000C15  2EF6065F4C02      test byte [cs:0x4c5f],0x2
00000C1B  7408              jz 0xc25
00000C1D  8B04              mov ax,[si]
00000C1F  2EA3564C          mov [cs:0x4c56],ax
00000C23  03F5              add si,bp
00000C25  2EF6065F4C04      test byte [cs:0x4c5f],0x4
00000C2B  7406              jz 0xc33
00000C2D  8B04              mov ax,[si]
00000C2F  2EA3584C          mov [cs:0x4c58],ax
00000C33  E8560F            call 0x1b8c
00000C36  AB                stosw
00000C37  5E                pop si
00000C38  46                inc si
00000C39  46                inc si
00000C3A  E2C8              loop 0xc04
00000C3C  59                pop cx
00000C3D  5B                pop bx
00000C3E  81EB1004          sub bx,0x410
00000C42  2EC6065D4C00      mov byte [cs:0x4c5d],0x0
00000C48  2EC6065E4C00      mov byte [cs:0x4c5e],0x0
00000C4E  2E890E604C        mov [cs:0x4c60],cx
00000C53  8CC8              mov ax,cs
00000C55  050030            add ax,0x3000
00000C58  8ED8              mov ds,ax
00000C5A  BE0000            mov si,0x0
00000C5D  B800B0            mov ax,0xb000
00000C60  8EC0              mov es,ax
00000C62  B90800            mov cx,0x8
00000C65  51                push cx
00000C66  2EA05E4C          mov al,[cs:0x4c5e]
00000C6A  2EA25D4C          mov [cs:0x4c5d],al
00000C6E  2EC6061AFF00      mov byte [cs:0xff1a],0x0
00000C74  B90D00            mov cx,0xd
00000C77  51                push cx
00000C78  53                push bx
00000C79  56                push si
00000C7A  E81D00            call 0xc9a
00000C7D  5E                pop si
00000C7E  5B                pop bx
00000C7F  59                pop cx
00000C80  2E80065D4C08      add byte [cs:0x4c5d],0x8
00000C86  E2EF              loop 0xc77
00000C88  59                pop cx
00000C89  2E803E1AFF14      cmp byte [cs:0xff1a],0x14
00000C8F  72F8              jc 0xc89
00000C91  2EFE065E4C        inc byte [cs:0x4c5e]
00000C96  E2CD              loop 0xc65
00000C98  1F                pop ds
00000C99  C3                ret
00000C9A  53                push bx
00000C9B  2E8A1E5D4C        mov bl,[cs:0x4c5d]
00000CA0  80C310            add bl,0x10
00000CA3  B704              mov bh,0x4
00000CA5  E8880F            call 0x1c30
00000CA8  8BF8              mov di,ax
00000CAA  5B                pop bx
00000CAB  2E381E5D4C        cmp [cs:0x4c5d],bl
00000CB0  7266              jc 0xd18
00000CB2  8AC3              mov al,bl
00000CB4  2E0206604C        add al,[cs:0x4c60]
00000CB9  2E38065D4C        cmp [cs:0x4c5d],al
00000CBE  7358              jnc 0xd18
00000CC0  2EA05D4C          mov al,[cs:0x4c5d]
00000CC4  2AC3              sub al,bl
00000CC6  2EF626614C        mul byte [cs:0x4c61]
00000CCB  03F0              add si,ax
00000CCD  57                push di
00000CCE  2EC6065C4C00      mov byte [cs:0x4c5c],0x0
00000CD4  B94800            mov cx,0x48
00000CD7  51                push cx
00000CD8  26C60500          mov byte [es:di],0x0
00000CDC  2E383E5C4C        cmp [cs:0x4c5c],bh
00000CE1  7210              jc 0xcf3
00000CE3  8AC7              mov al,bh
00000CE5  2E0206614C        add al,[cs:0x4c61]
00000CEA  2E38065C4C        cmp [cs:0x4c5c],al
00000CEF  7302              jnc 0xcf3
00000CF1  A4                movsb
00000CF2  4F                dec di
00000CF3  47                inc di
00000CF4  2EFE065C4C        inc byte [cs:0x4c5c]
00000CF9  59                pop cx
00000CFA  E2DB              loop 0xcd7
00000CFC  5F                pop di
00000CFD  81C70020          add di,0x2000
00000D01  81FF0060          cmp di,0x6000
00000D05  7301              jnc 0xd08
00000D07  C3                ret
00000D08  1E                push ds
00000D09  06                push es
00000D0A  1F                pop ds
00000D0B  8BF7              mov si,di
00000D0D  81EE0020          sub si,0x2000
00000D11  B94800            mov cx,0x48
00000D14  F3A4              rep movsb
00000D16  1F                pop ds
00000D17  C3                ret
00000D18  57                push di
00000D19  B92400            mov cx,0x24
00000D1C  33C0              xor ax,ax
00000D1E  F3AB              rep stosw
00000D20  5F                pop di
00000D21  81C70020          add di,0x2000
00000D25  81FF0060          cmp di,0x6000
00000D29  7301              jnc 0xd2c
00000D2B  C3                ret
00000D2C  B92400            mov cx,0x24
00000D2F  33C0              xor ax,ax
00000D31  F3AB              rep stosw
00000D33  C3                ret
00000D34  2E881E5D4C        mov [cs:0x4c5d],bl
00000D39  E8F40E            call 0x1c30
00000D3C  8BF8              mov di,ax
00000D3E  B800B0            mov ax,0xb000
00000D41  8EC0              mov es,ax
00000D43  8ADD              mov bl,ch
00000D45  32FF              xor bh,bh
00000D47  32ED              xor ch,ch
00000D49  83E905            sub cx,0x5
00000D4C  51                push cx
00000D4D  57                push di
00000D4E  E86700            call 0xdb8
00000D51  5F                pop di
00000D52  2EFE065D4C        inc byte [cs:0x4c5d]
00000D57  81C70020          add di,0x2000
00000D5B  81FF0060          cmp di,0x6000
00000D5F  7204              jc 0xd65
00000D61  81C75AA0          add di,0xa05a
00000D65  B90200            mov cx,0x2
00000D68  E88500            call 0xdf0
00000D6B  59                pop cx
00000D6C  51                push cx
00000D6D  E8D600            call 0xe46
00000D70  26800D30          or byte [es:di],0x30
00000D74  268025F0          and byte [es:di],0xf0
00000D78  268049FF0C        or byte [es:bx+di-0x1],0xc
00000D7D  268061FF0F        and byte [es:bx+di-0x1],0xf
00000D82  2EFE065D4C        inc byte [cs:0x4c5d]
00000D87  81C70020          add di,0x2000
00000D8B  81FF0060          cmp di,0x6000
00000D8F  721E              jc 0xdaf
00000D91  E8B200            call 0xe46
00000D94  26800D30          or byte [es:di],0x30
00000D98  268025F0          and byte [es:di],0xf0
00000D9C  268049FF0C        or byte [es:bx+di-0x1],0xc
00000DA1  268061FF0F        and byte [es:bx+di-0x1],0xf
00000DA6  2EFE065D4C        inc byte [cs:0x4c5d]
00000DAB  81C75AA0          add di,0xa05a
00000DAF  59                pop cx
00000DB0  E2BA              loop 0xd6c
00000DB2  B90100            mov cx,0x1
00000DB5  E83800            call 0xdf0
00000DB8  57                push di
00000DB9  E88A00            call 0xe46
00000DBC  26800D3F          or byte [es:di],0x3f
00000DC0  47                inc di
00000DC1  8BCB              mov cx,bx
00000DC3  83E902            sub cx,0x2
00000DC6  B0FF              mov al,0xff
00000DC8  F3AA              rep stosb
00000DCA  26800DFC          or byte [es:di],0xfc
00000DCE  5F                pop di
00000DCF  81C70020          add di,0x2000
00000DD3  81FF0060          cmp di,0x6000
00000DD7  7301              jnc 0xdda
00000DD9  C3                ret
00000DDA  E86900            call 0xe46
00000DDD  26800D3F          or byte [es:di],0x3f
00000DE1  47                inc di
00000DE2  8BCB              mov cx,bx
00000DE4  83E902            sub cx,0x2
00000DE7  B0FF              mov al,0xff
00000DE9  F3AA              rep stosb
00000DEB  26800DFC          or byte [es:di],0xfc
00000DEF  C3                ret
00000DF0  51                push cx
00000DF1  57                push di
00000DF2  E85100            call 0xe46
00000DF5  26800D30          or byte [es:di],0x30
00000DF9  268025F0          and byte [es:di],0xf0
00000DFD  47                inc di
00000DFE  8BCB              mov cx,bx
00000E00  83E902            sub cx,0x2
00000E03  32C0              xor al,al
00000E05  F3AA              rep stosb
00000E07  26800D0C          or byte [es:di],0xc
00000E0B  2680250F          and byte [es:di],0xf
00000E0F  5F                pop di
00000E10  2EFE065D4C        inc byte [cs:0x4c5d]
00000E15  81C70020          add di,0x2000
00000E19  81FF0060          cmp di,0x6000
00000E1D  7223              jc 0xe42
00000E1F  57                push di
00000E20  E82300            call 0xe46
00000E23  26800D30          or byte [es:di],0x30
00000E27  268025F0          and byte [es:di],0xf0
00000E2B  47                inc di
00000E2C  8BCB              mov cx,bx
00000E2E  83E902            sub cx,0x2
00000E31  32C0              xor al,al
00000E33  F3AA              rep stosb
00000E35  26800D0C          or byte [es:di],0xc
00000E39  2680250F          and byte [es:di],0xf
00000E3D  5F                pop di
00000E3E  81C75AA0          add di,0xa05a
00000E42  59                pop cx
00000E43  E2AB              loop 0xdf0
00000E45  C3                ret
00000E46  26C745FF0000      mov word [es:di-0x1],0x0
00000E4C  C3                ret
00000E4D  53                push bx
00000E4E  06                push es
00000E4F  57                push di
00000E50  B92810            mov cx,0x1028
00000E53  268A05            mov al,[es:di]
00000E56  2622852810        and al,[es:di+0x1028]
00000E5B  268AA55020        mov ah,[es:di+0x2050]
00000E60  F6D4              not ah
00000E62  22C4              and al,ah
00000E64  F6D0              not al
00000E66  262005            and [es:di],al
00000E69  2620852810        and [es:di+0x1028],al
00000E6E  2620855020        and [es:di+0x2050],al
00000E73  268A855020        mov al,[es:di+0x2050]
00000E78  268A25            mov ah,[es:di]
00000E7B  F6D4              not ah
00000E7D  22C4              and al,ah
00000E7F  268AA52810        mov ah,[es:di+0x1028]
00000E84  F6D4              not ah
00000E86  22C4              and al,ah
00000E88  260805            or [es:di],al
00000E8B  2608852810        or [es:di+0x1028],al
00000E90  F6D0              not al
00000E92  2620855020        and [es:di+0x2050],al
00000E97  47                inc di
00000E98  E2B9              loop 0xe53
00000E9A  5F                pop di
00000E9B  07                pop es
00000E9C  5B                pop bx
00000E9D  B9582F            mov cx,0x2f58
00000EA0  E92BF5            jmp 0x3ce
00000EA3  1E                push ds
00000EA4  893E624C          mov [0x4c62],di
00000EA8  8C06644C          mov word [0x4c64],es
00000EAC  BF9A06            mov di,0x69a
00000EAF  033E624C          add di,[0x4c62]
00000EB3  E85901            call 0x100f
00000EB6  BFBC06            mov di,0x6bc
00000EB9  033E624C          add di,[0x4c62]
00000EBD  E84F01            call 0x100f
00000EC0  B800B0            mov ax,0xb000
00000EC3  8EC0              mov es,ax
00000EC5  2E8E1E644C        mov ds,word [cs:0x4c64]
00000ECA  B94400            mov cx,0x44
00000ECD  51                push cx
00000ECE  2EC6061AFF00      mov byte [cs:0xff1a],0x0
00000ED4  B84400            mov ax,0x44
00000ED7  2BC1              sub ax,cx
00000ED9  03C0              add ax,ax
00000EDB  50                push ax
00000EDC  8AD8              mov bl,al
00000EDE  B050              mov al,0x50
00000EE0  F6E3              mul bl
00000EE2  50                push ax
00000EE3  32FF              xor bh,bh
00000EE5  E8480D            call 0x1c30
00000EE8  8BF8              mov di,ax
00000EEA  58                pop ax
00000EEB  2E0306624C        add ax,[cs:0x4c62]
00000EF0  8BF0              mov si,ax
00000EF2  58                pop ax
00000EF3  3D1600            cmp ax,0x16
00000EF6  720A              jc 0xf02
00000EF8  3D7100            cmp ax,0x71
00000EFB  7305              jnc 0xf02
00000EFD  E87600            call 0xf76
00000F00  EB03              jmp 0xf05
00000F02  E83E00            call 0xf43
00000F05  59                pop cx
00000F06  51                push cx
00000F07  8BC1              mov ax,cx
00000F09  03C0              add ax,ax
00000F0B  48                dec ax
00000F0C  50                push ax
00000F0D  8AD8              mov bl,al
00000F0F  B050              mov al,0x50
00000F11  F6E3              mul bl
00000F13  50                push ax
00000F14  32FF              xor bh,bh
00000F16  E8170D            call 0x1c30
00000F19  8BF8              mov di,ax
00000F1B  58                pop ax
00000F1C  2E0306624C        add ax,[cs:0x4c62]
00000F21  8BF0              mov si,ax
00000F23  58                pop ax
00000F24  3D1600            cmp ax,0x16
00000F27  720A              jc 0xf33
00000F29  3D7100            cmp ax,0x71
00000F2C  7305              jnc 0xf33
00000F2E  E84500            call 0xf76
00000F31  EB03              jmp 0xf36
00000F33  E80D00            call 0xf43
00000F36  2E803E1AFF04      cmp byte [cs:0xff1a],0x4
00000F3C  72F8              jc 0xf36
00000F3E  59                pop cx
00000F3F  E28C              loop 0xecd
00000F41  1F                pop ds
00000F42  C3                ret
00000F43  B92800            mov cx,0x28
00000F46  2EC7065A4C0000    mov word [cs:0x4c5a],0x0
00000F4D  8B840055          mov ax,[si+0x5500]
00000F51  2EA3584C          mov [cs:0x4c58],ax
00000F55  8B84802A          mov ax,[si+0x2a80]
00000F59  2EA3564C          mov [cs:0x4c56],ax
00000F5D  AD                lodsw
00000F5E  2EA3544C          mov [cs:0x4c54],ax
00000F62  E8270C            call 0x1b8c
00000F65  AB                stosw
00000F66  57                push di
00000F67  81C7FE1F          add di,0x1ffe
00000F6B  81FF0060          cmp di,0x6000
00000F6F  7201              jc 0xf72
00000F71  AB                stosw
00000F72  5F                pop di
00000F73  E2D8              loop 0xf4d
00000F75  C3                ret
00000F76  B90B00            mov cx,0xb
00000F79  2EC7065A4C0000    mov word [cs:0x4c5a],0x0
00000F80  32E4              xor ah,ah
00000F82  8A840055          mov al,[si+0x5500]
00000F86  2EA3584C          mov [cs:0x4c58],ax
00000F8A  8A84802A          mov al,[si+0x2a80]
00000F8E  2EA3564C          mov [cs:0x4c56],ax
00000F92  AC                lodsb
00000F93  2EA3544C          mov [cs:0x4c54],ax
00000F97  E8F20B            call 0x1b8c
00000F9A  AA                stosb
00000F9B  57                push di
00000F9C  81C7FF1F          add di,0x1fff
00000FA0  81FF0060          cmp di,0x6000
00000FA4  7201              jc 0xfa7
00000FA6  AA                stosb
00000FA7  5F                pop di
00000FA8  E2D6              loop 0xf80
00000FAA  83C618            add si,0x18
00000FAD  83C718            add di,0x18
00000FB0  B90500            mov cx,0x5
00000FB3  8B840055          mov ax,[si+0x5500]
00000FB7  2EA3584C          mov [cs:0x4c58],ax
00000FBB  8B84802A          mov ax,[si+0x2a80]
00000FBF  2EA3564C          mov [cs:0x4c56],ax
00000FC3  AD                lodsw
00000FC4  2EA3544C          mov [cs:0x4c54],ax
00000FC8  E8C10B            call 0x1b8c
00000FCB  AB                stosw
00000FCC  57                push di
00000FCD  81C7FE1F          add di,0x1ffe
00000FD1  81FF0060          cmp di,0x6000
00000FD5  7201              jc 0xfd8
00000FD7  AB                stosw
00000FD8  5F                pop di
00000FD9  E2D8              loop 0xfb3
00000FDB  83C618            add si,0x18
00000FDE  83C718            add di,0x18
00000FE1  B90B00            mov cx,0xb
00000FE4  32E4              xor ah,ah
00000FE6  8A840055          mov al,[si+0x5500]
00000FEA  2EA3584C          mov [cs:0x4c58],ax
00000FEE  8A84802A          mov al,[si+0x2a80]
00000FF2  2EA3564C          mov [cs:0x4c56],ax
00000FF6  AC                lodsb
00000FF7  2EA3544C          mov [cs:0x4c54],ax
00000FFB  E88E0B            call 0x1b8c
00000FFE  AA                stosb
00000FFF  57                push di
00001000  81C7FF1F          add di,0x1fff
00001004  81FF0060          cmp di,0x6000
00001008  7201              jc 0x100b
0000100A  AA                stosb
0000100B  5F                pop di
0000100C  E2D6              loop 0xfe4
0000100E  C3                ret
0000100F  57                push di
00001010  B83FFC            mov ax,0xfc3f
00001013  E87E00            call 0x1094
00001016  83C736            add di,0x36
00001019  B95B00            mov cx,0x5b
0000101C  26C60530          mov byte [es:di],0x30
00001020  26C645190C        mov byte [es:di+0x19],0xc
00001025  83C750            add di,0x50
00001028  E2F2              loop 0x101c
0000102A  B83FFC            mov ax,0xfc3f
0000102D  E86400            call 0x1094
00001030  5F                pop di
00001031  81C7802A          add di,0x2a80
00001035  57                push di
00001036  B87FFD            mov ax,0xfd7f
00001039  E85800            call 0x1094
0000103C  83C736            add di,0x36
0000103F  B92D00            mov cx,0x2d
00001042  26C605B0          mov byte [es:di],0xb0
00001046  26C645190E        mov byte [es:di+0x19],0xe
0000104B  83C750            add di,0x50
0000104E  26C60570          mov byte [es:di],0x70
00001052  26C645190D        mov byte [es:di+0x19],0xd
00001057  83C750            add di,0x50
0000105A  E2E6              loop 0x1042
0000105C  26C605B0          mov byte [es:di],0xb0
00001060  26C645190E        mov byte [es:di+0x19],0xe
00001065  83C750            add di,0x50
00001068  B87FFD            mov ax,0xfd7f
0000106B  E82600            call 0x1094
0000106E  5F                pop di
0000106F  81C7802A          add di,0x2a80
00001073  B83FFC            mov ax,0xfc3f
00001076  E81B00            call 0x1094
00001079  83C736            add di,0x36
0000107C  B95B00            mov cx,0x5b
0000107F  26C60530          mov byte [es:di],0x30
00001083  26C645190C        mov byte [es:di+0x19],0xc
00001088  83C750            add di,0x50
0000108B  E2F2              loop 0x107f
0000108D  B83FFC            mov ax,0xfc3f
00001090  E80100            call 0x1094
00001093  C3                ret
00001094  AA                stosb
00001095  B0FF              mov al,0xff
00001097  B91800            mov cx,0x18
0000109A  F3AA              rep stosb
0000109C  8AC4              mov al,ah
0000109E  AA                stosb
0000109F  C3                ret
000010A0  1E                push ds
000010A1  893E624C          mov [0x4c62],di
000010A5  8C06644C          mov word [0x4c64],es
000010A9  B800B0            mov ax,0xb000
000010AC  8EC0              mov es,ax
000010AE  2E8E1E644C        mov ds,word [cs:0x4c64]
000010B3  B93900            mov cx,0x39
000010B6  2EC6061AFF00      mov byte [cs:0xff1a],0x0
000010BC  51                push cx
000010BD  8BC1              mov ax,cx
000010BF  F7D8              neg ax
000010C1  053900            add ax,0x39
000010C4  03C0              add ax,ax
000010C6  E81500            call 0x10de
000010C9  58                pop ax
000010CA  50                push ax
000010CB  03C0              add ax,ax
000010CD  48                dec ax
000010CE  E80D00            call 0x10de
000010D1  2E803E1AFF04      cmp byte [cs:0xff1a],0x4
000010D7  72F8              jc 0x10d1
000010D9  59                pop cx
000010DA  E2DA              loop 0x10b6
000010DC  1F                pop ds
000010DD  C3                ret
000010DE  50                push ax
000010DF  8AD8              mov bl,al
000010E1  B02F              mov al,0x2f
000010E3  F6E3              mul bl
000010E5  2E0306624C        add ax,[cs:0x4c62]
000010EA  8BF0              mov si,ax
000010EC  32FF              xor bh,bh
000010EE  E83F0B            call 0x1c30
000010F1  8BF8              mov di,ax
000010F3  58                pop ax
000010F4  3D1400            cmp ax,0x14
000010F7  7305              jnc 0x10fe
000010F9  B92F00            mov cx,0x2f
000010FC  EB10              jmp 0x110e
000010FE  B92300            mov cx,0x23
00001101  3D1700            cmp ax,0x17
00001104  7208              jc 0x110e
00001106  3D1C00            cmp ax,0x1c
00001109  7235              jc 0x1140
0000110B  B92100            mov cx,0x21
0000110E  2EC7065A4C0000    mov word [cs:0x4c5a],0x0
00001115  32E4              xor ah,ah
00001117  8A84DC29          mov al,[si+0x29dc]
0000111B  2EA3584C          mov [cs:0x4c58],ax
0000111F  8A84EE14          mov al,[si+0x14ee]
00001123  2EA3564C          mov [cs:0x4c56],ax
00001127  AC                lodsb
00001128  2EA3544C          mov [cs:0x4c54],ax
0000112C  E85D0A            call 0x1b8c
0000112F  AA                stosb
00001130  57                push di
00001131  81C7FF1F          add di,0x1fff
00001135  81FF0060          cmp di,0x6000
00001139  7201              jc 0x113c
0000113B  AA                stosb
0000113C  5F                pop di
0000113D  E2D6              loop 0x1115
0000113F  C3                ret
00001140  B92100            mov cx,0x21
00001143  2EC7065A4C0000    mov word [cs:0x4c5a],0x0
0000114A  32E4              xor ah,ah
0000114C  8A84DC29          mov al,[si+0x29dc]
00001150  2EA3584C          mov [cs:0x4c58],ax
00001154  8A84EE14          mov al,[si+0x14ee]
00001158  2EA3564C          mov [cs:0x4c56],ax
0000115C  AC                lodsb
0000115D  2EA3544C          mov [cs:0x4c54],ax
00001161  E8280A            call 0x1b8c
00001164  AA                stosb
00001165  57                push di
00001166  81C7FF1F          add di,0x1fff
0000116A  81FF0060          cmp di,0x6000
0000116E  7201              jc 0x1171
00001170  AA                stosb
00001171  5F                pop di
00001172  E2D6              loop 0x114a
00001174  32E4              xor ah,ah
00001176  8A84DC29          mov al,[si+0x29dc]
0000117A  2EA3584C          mov [cs:0x4c58],ax
0000117E  8A84EE14          mov al,[si+0x14ee]
00001182  2EA3564C          mov [cs:0x4c56],ax
00001186  AC                lodsb
00001187  2EA3544C          mov [cs:0x4c54],ax
0000118B  E8FE09            call 0x1b8c
0000118E  24FC              and al,0xfc
00001190  26802503          and byte [es:di],0x3
00001194  260805            or [es:di],al
00001197  81C7FF1F          add di,0x1fff
0000119B  81FF0060          cmp di,0x6000
0000119F  7301              jnc 0x11a2
000011A1  C3                ret
000011A2  26802503          and byte [es:di],0x3
000011A6  260805            or [es:di],al
000011A9  C3                ret
000011AA  1E                push ds
000011AB  893E624C          mov [0x4c62],di
000011AF  8C06644C          mov word [0x4c64],es
000011B3  B800B0            mov ax,0xb000
000011B6  8EC0              mov es,ax
000011B8  2E8E1E644C        mov ds,word [cs:0x4c64]
000011BD  B93900            mov cx,0x39
000011C0  2EC6061AFF00      mov byte [cs:0xff1a],0x0
000011C6  51                push cx
000011C7  8BC1              mov ax,cx
000011C9  F7D8              neg ax
000011CB  053900            add ax,0x39
000011CE  03C0              add ax,ax
000011D0  E81500            call 0x11e8
000011D3  58                pop ax
000011D4  50                push ax
000011D5  03C0              add ax,ax
000011D7  48                dec ax
000011D8  E80D00            call 0x11e8
000011DB  2E803E1AFF04      cmp byte [cs:0xff1a],0x4
000011E1  72F8              jc 0x11db
000011E3  59                pop cx
000011E4  E2DA              loop 0x11c0
000011E6  1F                pop ds
000011E7  C3                ret
000011E8  50                push ax
000011E9  8AD8              mov bl,al
000011EB  B02F              mov al,0x2f
000011ED  F6E3              mul bl
000011EF  05CD03            add ax,0x3cd
000011F2  2E0306624C        add ax,[cs:0x4c62]
000011F7  8BF0              mov si,ax
000011F9  80C314            add bl,0x14
000011FC  32FF              xor bh,bh
000011FE  E82F0A            call 0x1c30
00001201  8BF8              mov di,ax
00001203  83C721            add di,0x21
00001206  58                pop ax
00001207  3D5E00            cmp ax,0x5e
0000120A  B92F00            mov cx,0x2f
0000120D  7335              jnc 0x1244
0000120F  B90700            mov cx,0x7
00001212  2EC7065A4C0000    mov word [cs:0x4c5a],0x0
00001219  8B84DC29          mov ax,[si+0x29dc]
0000121D  2EA3584C          mov [cs:0x4c58],ax
00001221  8B84EE14          mov ax,[si+0x14ee]
00001225  2EA3564C          mov [cs:0x4c56],ax
00001229  AD                lodsw
0000122A  2EA3544C          mov [cs:0x4c54],ax
0000122E  E85B09            call 0x1b8c
00001231  AB                stosw
00001232  57                push di
00001233  81C7FE1F          add di,0x1ffe
00001237  81FF0060          cmp di,0x6000
0000123B  7201              jc 0x123e
0000123D  AB                stosw
0000123E  5F                pop di
0000123F  E2D8              loop 0x1219
00001241  B92100            mov cx,0x21
00001244  32C0              xor al,al
00001246  51                push cx
00001247  57                push di
00001248  F3AA              rep stosb
0000124A  5F                pop di
0000124B  59                pop cx
0000124C  81C70020          add di,0x2000
00001250  81FF0060          cmp di,0x6000
00001254  7301              jnc 0x1257
00001256  C3                ret
00001257  F3AA              rep stosb
00001259  C3                ret
0000125A  50                push ax
0000125B  E8D209            call 0x1c30
0000125E  8BF8              mov di,ax
00001260  B800B0            mov ax,0xb000
00001263  8EC0              mov es,ax
00001265  58                pop ax
00001266  8AE0              mov ah,al
00001268  B90800            mov cx,0x8
0000126B  AB                stosw
0000126C  81C7FE1F          add di,0x1ffe
00001270  81FF0060          cmp di,0x6000
00001274  7205              jc 0x127b
00001276  AB                stosw
00001277  81C758A0          add di,0xa058
0000127B  E2EE              loop 0x126b
0000127D  C3                ret
0000127E  48                dec ax
0000127F  B90001            mov cx,0x100
00001282  F7E1              mul cx
00001284  058842            add ax,0x4288
00001287  2EA3524C          mov [cs:0x4c52],ax
0000128B  C3                ret
0000128C  0000              add [bx+si],al
0000128E  0000              add [bx+si],al
00001290  0000              add [bx+si],al
00001292  0000              add [bx+si],al
00001294  0000              add [bx+si],al
00001296  0000              add [bx+si],al
00001298  0000              add [bx+si],al
0000129A  0000              add [bx+si],al
0000129C  0002              add [bp+si],al
0000129E  0000              add [bx+si],al
000012A0  0000              add [bx+si],al
000012A2  0000              add [bx+si],al
000012A4  0000              add [bx+si],al
000012A6  0000              add [bx+si],al
000012A8  0000              add [bx+si],al
000012AA  0000              add [bx+si],al
000012AC  0000              add [bx+si],al
000012AE  0100              add [bx+si],ax
000012B0  0000              add [bx+si],al
000012B2  0000              add [bx+si],al
000012B4  0000              add [bx+si],al
000012B6  0100              add [bx+si],ax
000012B8  0000              add [bx+si],al
000012BA  0000              add [bx+si],al
000012BC  0000              add [bx+si],al
000012BE  0001              add [bx+di],al
000012C0  0000              add [bx+si],al
000012C2  0000              add [bx+si],al
000012C4  0000              add [bx+si],al
000012C6  0001              add [bx+di],al
000012C8  0000              add [bx+si],al
000012CA  0000              add [bx+si],al
000012CC  0000              add [bx+si],al
000012CE  0000              add [bx+si],al
000012D0  0303              add ax,[bp+di]
000012D2  0303              add ax,[bp+di]
000012D4  0003              add [bp+di],al
000012D6  0000              add [bx+si],al
000012D8  0303              add ax,[bp+di]
000012DA  0303              add ax,[bp+di]
000012DC  0000              add [bx+si],al
000012DE  0000              add [bx+si],al
000012E0  0303              add ax,[bp+di]
000012E2  0303              add ax,[bp+di]
000012E4  0003              add [bp+di],al
000012E6  0000              add [bx+si],al
000012E8  0303              add ax,[bp+di]
000012EA  0303              add ax,[bp+di]
000012EC  0000              add [bx+si],al
000012EE  0000              add [bx+si],al
000012F0  0303              add ax,[bp+di]
000012F2  0303              add ax,[bp+di]
000012F4  0003              add [bp+di],al
000012F6  0000              add [bx+si],al
000012F8  0303              add ax,[bp+di]
000012FA  0303              add ax,[bp+di]
000012FC  0000              add [bx+si],al
000012FE  0000              add [bx+si],al
00001300  0303              add ax,[bp+di]
00001302  0303              add ax,[bp+di]
00001304  0003              add [bp+di],al
00001306  0000              add [bx+si],al
00001308  0303              add ax,[bp+di]
0000130A  0303              add ax,[bp+di]
0000130C  0000              add [bx+si],al
0000130E  0000              add [bx+si],al
00001310  0000              add [bx+si],al
00001312  0000              add [bx+si],al
00001314  0100              add [bx+si],ax
00001316  0000              add [bx+si],al
00001318  0000              add [bx+si],al
0000131A  0000              add [bx+si],al
0000131C  0000              add [bx+si],al
0000131E  0000              add [bx+si],al
00001320  0303              add ax,[bp+di]
00001322  0303              add ax,[bp+di]
00001324  0001              add [bx+di],al
00001326  0000              add [bx+si],al
00001328  0000              add [bx+si],al
0000132A  0000              add [bx+si],al
0000132C  0000              add [bx+si],al
0000132E  0100              add [bx+si],ax
00001330  0000              add [bx+si],al
00001332  0000              add [bx+si],al
00001334  0000              add [bx+si],al
00001336  0100              add [bx+si],ax
00001338  0000              add [bx+si],al
0000133A  0000              add [bx+si],al
0000133C  0000              add [bx+si],al
0000133E  0001              add [bx+di],al
00001340  0000              add [bx+si],al
00001342  0000              add [bx+si],al
00001344  0000              add [bx+si],al
00001346  0001              add [bx+di],al
00001348  0000              add [bx+si],al
0000134A  0000              add [bx+si],al
0000134C  0000              add [bx+si],al
0000134E  0000              add [bx+si],al
00001350  0303              add ax,[bp+di]
00001352  0303              add ax,[bp+di]
00001354  0000              add [bx+si],al
00001356  0000              add [bx+si],al
00001358  0303              add ax,[bp+di]
0000135A  0303              add ax,[bp+di]
0000135C  0000              add [bx+si],al
0000135E  0000              add [bx+si],al
00001360  0303              add ax,[bp+di]
00001362  0303              add ax,[bp+di]
00001364  0000              add [bx+si],al
00001366  0000              add [bx+si],al
00001368  0303              add ax,[bp+di]
0000136A  0303              add ax,[bp+di]
0000136C  0000              add [bx+si],al
0000136E  0000              add [bx+si],al
00001370  0303              add ax,[bp+di]
00001372  0303              add ax,[bp+di]
00001374  0000              add [bx+si],al
00001376  0000              add [bx+si],al
00001378  0303              add ax,[bp+di]
0000137A  0303              add ax,[bp+di]
0000137C  0000              add [bx+si],al
0000137E  0000              add [bx+si],al
00001380  0303              add ax,[bp+di]
00001382  0303              add ax,[bp+di]
00001384  0000              add [bx+si],al
00001386  0000              add [bx+si],al
00001388  0303              add ax,[bp+di]
0000138A  0303              add ax,[bp+di]
0000138C  0000              add [bx+si],al
0000138E  0000              add [bx+si],al
00001390  0001              add [bx+di],al
00001392  0200              add al,[bx+si]
00001394  0000              add [bx+si],al
00001396  0000              add [bx+si],al
00001398  0000              add [bx+si],al
0000139A  0000              add [bx+si],al
0000139C  0001              add [bx+di],al
0000139E  0102              add [bp+si],ax
000013A0  0001              add [bx+di],al
000013A2  0201              add al,[bx+di]
000013A4  0000              add [bx+si],al
000013A6  0000              add [bx+si],al
000013A8  0000              add [bx+si],al
000013AA  0000              add [bx+si],al
000013AC  0001              add [bx+di],al
000013AE  0200              add al,[bx+si]
000013B0  0002              add [bp+si],al
000013B2  0202              add al,[bp+si]
000013B4  0000              add [bx+si],al
000013B6  0000              add [bx+si],al
000013B8  0000              add [bx+si],al
000013BA  0000              add [bx+si],al
000013BC  0002              add [bp+si],al
000013BE  0002              add [bp+si],al
000013C0  0001              add [bx+di],al
000013C2  0202              add al,[bp+si]
000013C4  0000              add [bx+si],al
000013C6  0000              add [bx+si],al
000013C8  0000              add [bx+si],al
000013CA  0000              add [bx+si],al
000013CC  0000              add [bx+si],al
000013CE  0000              add [bx+si],al
000013D0  0001              add [bx+di],al
000013D2  0200              add al,[bx+si]
000013D4  0000              add [bx+si],al
000013D6  0000              add [bx+si],al
000013D8  0000              add [bx+si],al
000013DA  0000              add [bx+si],al
000013DC  0101              add [bx+di],ax
000013DE  0201              add al,[bx+di]
000013E0  0101              add [bx+di],ax
000013E2  0103              add [bp+di],ax
000013E4  0000              add [bx+si],al
000013E6  0000              add [bx+si],al
000013E8  0000              add [bx+si],al
000013EA  0000              add [bx+si],al
000013EC  0201              add al,[bx+di]
000013EE  0202              add al,[bp+si]
000013F0  0201              add al,[bx+di]
000013F2  0303              add ax,[bp+di]
000013F4  0000              add [bx+si],al
000013F6  0000              add [bx+si],al
000013F8  0000              add [bx+si],al
000013FA  0000              add [bx+si],al
000013FC  0001              add [bx+di],al
000013FE  0202              add al,[bp+si]
00001400  0003              add [bp+di],al
00001402  0303              add ax,[bp+di]
00001404  0000              add [bx+si],al
00001406  0000              add [bx+si],al
00001408  0000              add [bx+si],al
0000140A  0000              add [bx+si],al
0000140C  0000              add [bx+si],al
0000140E  0000              add [bx+si],al
00001410  0000              add [bx+si],al
00001412  0000              add [bx+si],al
00001414  0000              add [bx+si],al
00001416  0000              add [bx+si],al
00001418  0000              add [bx+si],al
0000141A  0000              add [bx+si],al
0000141C  0000              add [bx+si],al
0000141E  0000              add [bx+si],al
00001420  0000              add [bx+si],al
00001422  0000              add [bx+si],al
00001424  0003              add [bp+di],al
00001426  0000              add [bx+si],al
00001428  0000              add [bx+si],al
0000142A  0000              add [bx+si],al
0000142C  0000              add [bx+si],al
0000142E  0000              add [bx+si],al
00001430  0000              add [bx+si],al
00001432  0000              add [bx+si],al
00001434  0000              add [bx+si],al
00001436  0200              add al,[bx+si]
00001438  0000              add [bx+si],al
0000143A  0000              add [bx+si],al
0000143C  0000              add [bx+si],al
0000143E  0000              add [bx+si],al
00001440  0000              add [bx+si],al
00001442  0000              add [bx+si],al
00001444  0000              add [bx+si],al
00001446  0002              add [bp+si],al
00001448  0000              add [bx+si],al
0000144A  0000              add [bx+si],al
0000144C  0000              add [bx+si],al
0000144E  0000              add [bx+si],al
00001450  0000              add [bx+si],al
00001452  0000              add [bx+si],al
00001454  0000              add [bx+si],al
00001456  0000              add [bx+si],al
00001458  0100              add [bx+si],ax
0000145A  0000              add [bx+si],al
0000145C  0000              add [bx+si],al
0000145E  0000              add [bx+si],al
00001460  0000              add [bx+si],al
00001462  0000              add [bx+si],al
00001464  0000              add [bx+si],al
00001466  0000              add [bx+si],al
00001468  0001              add [bx+di],al
0000146A  0000              add [bx+si],al
0000146C  0000              add [bx+si],al
0000146E  0000              add [bx+si],al
00001470  0000              add [bx+si],al
00001472  0000              add [bx+si],al
00001474  0000              add [bx+si],al
00001476  0000              add [bx+si],al
00001478  0000              add [bx+si],al
0000147A  0300              add ax,[bx+si]
0000147C  0000              add [bx+si],al
0000147E  0000              add [bx+si],al
00001480  0000              add [bx+si],al
00001482  0000              add [bx+si],al
00001484  0000              add [bx+si],al
00001486  0000              add [bx+si],al
00001488  0000              add [bx+si],al
0000148A  0003              add [bp+di],al
0000148C  0000              add [bx+si],al
0000148E  0001              add [bx+di],al
00001490  0001              add [bx+di],al
00001492  0001              add [bx+di],al
00001494  0000              add [bx+si],al
00001496  0000              add [bx+si],al
00001498  0000              add [bx+si],al
0000149A  0000              add [bx+si],al
0000149C  0002              add [bp+si],al
0000149E  0102              add [bp+si],ax
000014A0  0102              add [bp+si],ax
000014A2  0002              add [bp+si],al
000014A4  0000              add [bx+si],al
000014A6  0000              add [bx+si],al
000014A8  0000              add [bx+si],al
000014AA  0000              add [bx+si],al
000014AC  0001              add [bx+di],al
000014AE  0103              add [bp+di],ax
000014B0  0103              add [bp+di],ax
000014B2  0003              add [bp+di],al
000014B4  0000              add [bx+si],al
000014B6  0000              add [bx+si],al
000014B8  0000              add [bx+si],al
000014BA  0000              add [bx+si],al
000014BC  0102              add [bp+si],ax
000014BE  0303              add ax,[bp+di]
000014C0  0303              add ax,[bp+di]
000014C2  0003              add [bp+di],al
000014C4  0000              add [bx+si],al
000014C6  0000              add [bx+si],al
000014C8  0000              add [bx+si],al
000014CA  0000              add [bx+si],al
000014CC  0001              add [bx+di],al
000014CE  0103              add [bp+di],ax
000014D0  0103              add [bp+di],ax
000014D2  0003              add [bp+di],al
000014D4  0000              add [bx+si],al
000014D6  0000              add [bx+si],al
000014D8  0000              add [bx+si],al
000014DA  0000              add [bx+si],al
000014DC  0102              add [bp+si],ax
000014DE  0303              add ax,[bp+di]
000014E0  0303              add ax,[bp+di]
000014E2  0003              add [bp+di],al
000014E4  0000              add [bx+si],al
000014E6  0000              add [bx+si],al
000014E8  0000              add [bx+si],al
000014EA  0000              add [bx+si],al
000014EC  0000              add [bx+si],al
000014EE  0000              add [bx+si],al
000014F0  0000              add [bx+si],al
000014F2  0001              add [bx+di],al
000014F4  0000              add [bx+si],al
000014F6  0000              add [bx+si],al
000014F8  0000              add [bx+si],al
000014FA  0000              add [bx+si],al
000014FC  0102              add [bp+si],ax
000014FE  0303              add ax,[bp+di]
00001500  0303              add ax,[bp+di]
00001502  0103              add [bp+di],ax
00001504  0000              add [bx+si],al
00001506  0000              add [bx+si],al
00001508  0000              add [bx+si],al
0000150A  0000              add [bx+si],al
0000150C  0000              add [bx+si],al
0000150E  0000              add [bx+si],al
00001510  0000              add [bx+si],al
00001512  0000              add [bx+si],al
00001514  0000              add [bx+si],al
00001516  0000              add [bx+si],al
00001518  0000              add [bx+si],al
0000151A  0000              add [bx+si],al
0000151C  0000              add [bx+si],al
0000151E  0000              add [bx+si],al
00001520  0000              add [bx+si],al
00001522  0000              add [bx+si],al
00001524  0003              add [bp+di],al
00001526  0000              add [bx+si],al
00001528  0000              add [bx+si],al
0000152A  0000              add [bx+si],al
0000152C  0000              add [bx+si],al
0000152E  0000              add [bx+si],al
00001530  0000              add [bx+si],al
00001532  0000              add [bx+si],al
00001534  0000              add [bx+si],al
00001536  0200              add al,[bx+si]
00001538  0000              add [bx+si],al
0000153A  0000              add [bx+si],al
0000153C  0000              add [bx+si],al
0000153E  0000              add [bx+si],al
00001540  0000              add [bx+si],al
00001542  0000              add [bx+si],al
00001544  0000              add [bx+si],al
00001546  0002              add [bp+si],al
00001548  0000              add [bx+si],al
0000154A  0000              add [bx+si],al
0000154C  0000              add [bx+si],al
0000154E  0000              add [bx+si],al
00001550  0000              add [bx+si],al
00001552  0000              add [bx+si],al
00001554  0000              add [bx+si],al
00001556  0000              add [bx+si],al
00001558  0100              add [bx+si],ax
0000155A  0000              add [bx+si],al
0000155C  0000              add [bx+si],al
0000155E  0000              add [bx+si],al
00001560  0000              add [bx+si],al
00001562  0000              add [bx+si],al
00001564  0000              add [bx+si],al
00001566  0000              add [bx+si],al
00001568  0001              add [bx+di],al
0000156A  0000              add [bx+si],al
0000156C  0000              add [bx+si],al
0000156E  0000              add [bx+si],al
00001570  0000              add [bx+si],al
00001572  0000              add [bx+si],al
00001574  0000              add [bx+si],al
00001576  0000              add [bx+si],al
00001578  0000              add [bx+si],al
0000157A  0200              add al,[bx+si]
0000157C  0000              add [bx+si],al
0000157E  0000              add [bx+si],al
00001580  0000              add [bx+si],al
00001582  0000              add [bx+si],al
00001584  0000              add [bx+si],al
00001586  0000              add [bx+si],al
00001588  0000              add [bx+si],al
0000158A  0003              add [bp+di],al
0000158C  0000              add [bx+si],al
0000158E  0002              add [bp+si],al
00001590  0101              add [bx+di],ax
00001592  0203              add al,[bp+di]
00001594  0001              add [bx+di],al
00001596  0202              add al,[bp+si]
00001598  0101              add [bx+di],ax
0000159A  0203              add al,[bp+di]
0000159C  0001              add [bx+di],al
0000159E  0202              add al,[bp+si]
000015A0  0101              add [bx+di],ax
000015A2  0101              add [bx+di],ax
000015A4  0001              add [bx+di],al
000015A6  0202              add al,[bp+si]
000015A8  0101              add [bx+di],ax
000015AA  0101              add [bx+di],ax
000015AC  0002              add [bp+si],al
000015AE  0202              add al,[bp+si]
000015B0  0101              add [bx+di],ax
000015B2  0203              add al,[bp+di]
000015B4  0002              add [bp+si],al
000015B6  0202              add al,[bp+si]
000015B8  0101              add [bx+di],ax
000015BA  0203              add al,[bp+di]
000015BC  0202              add al,[bp+si]
000015BE  0202              add al,[bp+si]
000015C0  0101              add [bx+di],ax
000015C2  0202              add al,[bp+si]
000015C4  0002              add [bp+si],al
000015C6  0201              add al,[bx+di]
000015C8  0102              add [bp+si],ax
000015CA  0203              add al,[bp+di]
000015CC  0101              add [bx+di],ax
000015CE  0101              add [bx+di],ax
000015D0  0101              add [bx+di],ax
000015D2  0303              add ax,[bp+di]
000015D4  0101              add [bx+di],ax
000015D6  0101              add [bx+di],ax
000015D8  0101              add [bx+di],ax
000015DA  0303              add ax,[bp+di]
000015DC  0101              add [bx+di],ax
000015DE  0101              add [bx+di],ax
000015E0  0101              add [bx+di],ax
000015E2  0303              add ax,[bp+di]
000015E4  0101              add [bx+di],ax
000015E6  0101              add [bx+di],ax
000015E8  0101              add [bx+di],ax
000015EA  0303              add ax,[bp+di]
000015EC  0201              add al,[bx+di]
000015EE  0202              add al,[bp+si]
000015F0  0303              add ax,[bp+di]
000015F2  0303              add ax,[bp+di]
000015F4  0202              add al,[bp+si]
000015F6  0202              add al,[bp+si]
000015F8  0303              add ax,[bp+di]
000015FA  0303              add ax,[bp+di]
000015FC  0301              add ax,[bx+di]
000015FE  0302              add ax,[bp+si]
00001600  0303              add ax,[bp+di]
00001602  0303              add ax,[bp+di]
00001604  0301              add ax,[bx+di]
00001606  0202              add al,[bp+si]
00001608  0303              add ax,[bp+di]
0000160A  0303              add ax,[bp+di]
0000160C  0000              add [bx+si],al
0000160E  0000              add [bx+si],al
00001610  0101              add [bx+di],ax
00001612  0203              add al,[bp+di]
00001614  0000              add [bx+si],al
00001616  0002              add [bp+si],al
00001618  0101              add [bx+di],ax
0000161A  0203              add al,[bp+di]
0000161C  0101              add [bx+di],ax
0000161E  0202              add al,[bp+si]
00001620  0101              add [bx+di],ax
00001622  0201              add al,[bx+di]
00001624  0001              add [bx+di],al
00001626  0202              add al,[bp+si]
00001628  0101              add [bx+di],ax
0000162A  0101              add [bx+di],ax
0000162C  0202              add al,[bp+si]
0000162E  0202              add al,[bp+si]
00001630  0101              add [bx+di],ax
00001632  0202              add al,[bp+si]
00001634  0002              add [bp+si],al
00001636  0202              add al,[bp+si]
00001638  0101              add [bx+di],ax
0000163A  0203              add al,[bp+di]
0000163C  0202              add al,[bp+si]
0000163E  0201              add al,[bx+di]
00001640  0101              add [bx+di],ax
00001642  0202              add al,[bp+si]
00001644  0202              add al,[bp+si]
00001646  0202              add al,[bp+si]
00001648  0101              add [bx+di],ax
0000164A  0202              add al,[bp+si]
0000164C  0101              add [bx+di],ax
0000164E  0101              add [bx+di],ax
00001650  0101              add [bx+di],ax
00001652  0303              add ax,[bp+di]
00001654  0101              add [bx+di],ax
00001656  0101              add [bx+di],ax
00001658  0101              add [bx+di],ax
0000165A  0303              add ax,[bp+di]
0000165C  0101              add [bx+di],ax
0000165E  0102              add [bp+si],ax
00001660  0101              add [bx+di],ax
00001662  0303              add ax,[bp+di]
00001664  0101              add [bx+di],ax
00001666  0101              add [bx+di],ax
00001668  0101              add [bx+di],ax
0000166A  0303              add ax,[bp+di]
0000166C  0201              add al,[bx+di]
0000166E  0202              add al,[bp+si]
00001670  0303              add ax,[bp+di]
00001672  0303              add ax,[bp+di]
00001674  0201              add al,[bx+di]
00001676  0202              add al,[bp+si]
00001678  0303              add ax,[bp+di]
0000167A  0303              add ax,[bp+di]
0000167C  0301              add ax,[bx+di]
0000167E  0303              add ax,[bp+di]
00001680  0303              add ax,[bp+di]
00001682  0303              add ax,[bp+di]
00001684  0301              add ax,[bx+di]
00001686  0302              add ax,[bp+si]
00001688  0303              add ax,[bp+di]
0000168A  0303              add ax,[bp+di]
0000168C  0000              add [bx+si],al
0000168E  0001              add [bx+di],al
00001690  0101              add [bx+di],ax
00001692  0203              add al,[bp+di]
00001694  0001              add [bx+di],al
00001696  0202              add al,[bp+si]
00001698  0101              add [bx+di],ax
0000169A  0203              add al,[bp+di]
0000169C  0001              add [bx+di],al
0000169E  0203              add al,[bp+di]
000016A0  0101              add [bx+di],ax
000016A2  0101              add [bx+di],ax
000016A4  0001              add [bx+di],al
000016A6  0202              add al,[bp+si]
000016A8  0101              add [bx+di],ax
000016AA  0101              add [bx+di],ax
000016AC  0002              add [bp+si],al
000016AE  0203              add al,[bp+di]
000016B0  0101              add [bx+di],ax
000016B2  0203              add al,[bp+di]
000016B4  0002              add [bp+si],al
000016B6  0202              add al,[bp+si]
000016B8  0101              add [bx+di],ax
000016BA  0203              add al,[bp+di]
000016BC  0103              add [bp+di],ax
000016BE  0303              add ax,[bp+di]
000016C0  0303              add ax,[bp+di]
000016C2  0303              add ax,[bp+di]
000016C4  0003              add [bp+di],al
000016C6  0303              add ax,[bp+di]
000016C8  0303              add ax,[bp+di]
000016CA  0303              add ax,[bp+di]
000016CC  0101              add [bx+di],ax
000016CE  0103              add [bp+di],ax
000016D0  0101              add [bx+di],ax
000016D2  0303              add ax,[bp+di]
000016D4  0101              add [bx+di],ax
000016D6  0101              add [bx+di],ax
000016D8  0101              add [bx+di],ax
000016DA  0303              add ax,[bp+di]
000016DC  0101              add [bx+di],ax
000016DE  0103              add [bp+di],ax
000016E0  0101              add [bx+di],ax
000016E2  0303              add ax,[bp+di]
000016E4  0101              add [bx+di],ax
000016E6  0101              add [bx+di],ax
000016E8  0101              add [bx+di],ax
000016EA  0303              add ax,[bp+di]
000016EC  0201              add al,[bx+di]
000016EE  0203              add al,[bp+di]
000016F0  0303              add ax,[bp+di]
000016F2  0303              add ax,[bp+di]
000016F4  0202              add al,[bp+si]
000016F6  0202              add al,[bp+si]
000016F8  0303              add ax,[bp+di]
000016FA  0303              add ax,[bp+di]
000016FC  0301              add ax,[bx+di]
000016FE  0303              add ax,[bp+di]
00001700  0303              add ax,[bp+di]
00001702  0303              add ax,[bp+di]
00001704  0301              add ax,[bx+di]
00001706  0202              add al,[bp+si]
00001708  0303              add ax,[bp+di]
0000170A  0303              add ax,[bp+di]
0000170C  0000              add [bx+si],al
0000170E  0000              add [bx+si],al
00001710  0101              add [bx+di],ax
00001712  0203              add al,[bp+di]
00001714  0000              add [bx+si],al
00001716  0002              add [bp+si],al
00001718  0101              add [bx+di],ax
0000171A  0203              add al,[bp+di]
0000171C  0101              add [bx+di],ax
0000171E  0203              add al,[bp+di]
00001720  0101              add [bx+di],ax
00001722  0201              add al,[bx+di]
00001724  0001              add [bx+di],al
00001726  0202              add al,[bp+si]
00001728  0101              add [bx+di],ax
0000172A  0101              add [bx+di],ax
0000172C  0202              add al,[bp+si]
0000172E  0203              add al,[bp+di]
00001730  0101              add [bx+di],ax
00001732  0202              add al,[bp+si]
00001734  0002              add [bp+si],al
00001736  0202              add al,[bp+si]
00001738  0101              add [bx+di],ax
0000173A  0203              add al,[bp+di]
0000173C  0202              add al,[bp+si]
0000173E  0203              add al,[bp+di]
00001740  0101              add [bx+di],ax
00001742  0202              add al,[bp+si]
00001744  0202              add al,[bp+si]
00001746  0202              add al,[bp+si]
00001748  0101              add [bx+di],ax
0000174A  0202              add al,[bp+si]
0000174C  0101              add [bx+di],ax
0000174E  0103              add [bp+di],ax
00001750  0101              add [bx+di],ax
00001752  0303              add ax,[bp+di]
00001754  0101              add [bx+di],ax
00001756  0101              add [bx+di],ax
00001758  0101              add [bx+di],ax
0000175A  0303              add ax,[bp+di]
0000175C  0101              add [bx+di],ax
0000175E  0103              add [bp+di],ax
00001760  0101              add [bx+di],ax
00001762  0303              add ax,[bp+di]
00001764  0101              add [bx+di],ax
00001766  0101              add [bx+di],ax
00001768  0101              add [bx+di],ax
0000176A  0303              add ax,[bp+di]
0000176C  0201              add al,[bx+di]
0000176E  0203              add al,[bp+di]
00001770  0303              add ax,[bp+di]
00001772  0303              add ax,[bp+di]
00001774  0201              add al,[bx+di]
00001776  0202              add al,[bp+si]
00001778  0303              add ax,[bp+di]
0000177A  0303              add ax,[bp+di]
0000177C  0301              add ax,[bx+di]
0000177E  0303              add ax,[bp+di]
00001780  0303              add ax,[bp+di]
00001782  0303              add ax,[bp+di]
00001784  0301              add ax,[bx+di]
00001786  0302              add ax,[bp+si]
00001788  0303              add ax,[bp+di]
0000178A  0303              add ax,[bp+di]
0000178C  0000              add [bx+si],al
0000178E  0000              add [bx+si],al
00001790  0001              add [bx+di],al
00001792  0203              add al,[bp+di]
00001794  0001              add [bx+di],al
00001796  0202              add al,[bp+si]
00001798  0101              add [bx+di],ax
0000179A  0203              add al,[bp+di]
0000179C  0001              add [bx+di],al
0000179E  0202              add al,[bp+si]
000017A0  0001              add [bx+di],al
000017A2  0101              add [bx+di],ax
000017A4  0001              add [bx+di],al
000017A6  0202              add al,[bp+si]
000017A8  0101              add [bx+di],ax
000017AA  0101              add [bx+di],ax
000017AC  0002              add [bp+si],al
000017AE  0202              add al,[bp+si]
000017B0  0002              add [bp+si],al
000017B2  0203              add al,[bp+di]
000017B4  0002              add [bp+si],al
000017B6  0202              add al,[bp+si]
000017B8  0101              add [bx+di],ax
000017BA  0203              add al,[bp+di]
000017BC  0002              add [bp+si],al
000017BE  0202              add al,[bp+si]
000017C0  0002              add [bp+si],al
000017C2  0303              add ax,[bp+di]
000017C4  0003              add [bp+di],al
000017C6  0303              add ax,[bp+di]
000017C8  0303              add ax,[bp+di]
000017CA  0303              add ax,[bp+di]
000017CC  0000              add [bx+si],al
000017CE  0000              add [bx+si],al
000017D0  0000              add [bx+si],al
000017D2  0200              add al,[bx+si]
000017D4  0101              add [bx+di],ax
000017D6  0101              add [bx+di],ax
000017D8  0101              add [bx+di],ax
000017DA  0303              add ax,[bp+di]
000017DC  0101              add [bx+di],ax
000017DE  0202              add al,[bp+si]
000017E0  0003              add [bp+di],al
000017E2  0303              add ax,[bp+di]
000017E4  0101              add [bx+di],ax
000017E6  0101              add [bx+di],ax
000017E8  0101              add [bx+di],ax
000017EA  0303              add ax,[bp+di]
000017EC  0201              add al,[bx+di]
000017EE  0203              add al,[bp+di]
000017F0  0203              add al,[bp+di]
000017F2  0303              add ax,[bp+di]
000017F4  0202              add al,[bp+si]
000017F6  0202              add al,[bp+si]
000017F8  0303              add ax,[bp+di]
000017FA  0303              add ax,[bp+di]
000017FC  0301              add ax,[bx+di]
000017FE  0303              add ax,[bp+di]
00001800  0003              add [bp+di],al
00001802  0303              add ax,[bp+di]
00001804  0301              add ax,[bx+di]
00001806  0202              add al,[bp+si]
00001808  0303              add ax,[bp+di]
0000180A  0303              add ax,[bp+di]
0000180C  0000              add [bx+si],al
0000180E  0000              add [bx+si],al
00001810  0101              add [bx+di],ax
00001812  0203              add al,[bp+di]
00001814  0000              add [bx+si],al
00001816  0002              add [bp+si],al
00001818  0101              add [bx+di],ax
0000181A  0203              add al,[bp+di]
0000181C  0101              add [bx+di],ax
0000181E  0203              add al,[bp+di]
00001820  0101              add [bx+di],ax
00001822  0201              add al,[bx+di]
00001824  0001              add [bx+di],al
00001826  0202              add al,[bp+si]
00001828  0101              add [bx+di],ax
0000182A  0101              add [bx+di],ax
0000182C  0202              add al,[bp+si]
0000182E  0203              add al,[bp+di]
00001830  0101              add [bx+di],ax
00001832  0202              add al,[bp+si]
00001834  0002              add [bp+si],al
00001836  0202              add al,[bp+si]
00001838  0101              add [bx+di],ax
0000183A  0203              add al,[bp+di]
0000183C  0202              add al,[bp+si]
0000183E  0203              add al,[bp+di]
00001840  0101              add [bx+di],ax
00001842  0202              add al,[bp+si]
00001844  0202              add al,[bp+si]
00001846  0202              add al,[bp+si]
00001848  0101              add [bx+di],ax
0000184A  0202              add al,[bp+si]
0000184C  0101              add [bx+di],ax
0000184E  0103              add [bp+di],ax
00001850  0101              add [bx+di],ax
00001852  0303              add ax,[bp+di]
00001854  0101              add [bx+di],ax
00001856  0101              add [bx+di],ax
00001858  0101              add [bx+di],ax
0000185A  0303              add ax,[bp+di]
0000185C  0101              add [bx+di],ax
0000185E  0103              add [bp+di],ax
00001860  0101              add [bx+di],ax
00001862  0303              add ax,[bp+di]
00001864  0101              add [bx+di],ax
00001866  0101              add [bx+di],ax
00001868  0101              add [bx+di],ax
0000186A  0303              add ax,[bp+di]
0000186C  0201              add al,[bx+di]
0000186E  0203              add al,[bp+di]
00001870  0303              add ax,[bp+di]
00001872  0303              add ax,[bp+di]
00001874  0201              add al,[bx+di]
00001876  0202              add al,[bp+si]
00001878  0303              add ax,[bp+di]
0000187A  0303              add ax,[bp+di]
0000187C  0301              add ax,[bx+di]
0000187E  0303              add ax,[bp+di]
00001880  0303              add ax,[bp+di]
00001882  0303              add ax,[bp+di]
00001884  0301              add ax,[bx+di]
00001886  0302              add ax,[bp+si]
00001888  0303              add ax,[bp+di]
0000188A  0303              add ax,[bp+di]
0000188C  0001              add [bx+di],al
0000188E  0000              add [bx+si],al
00001890  0101              add [bx+di],ax
00001892  0201              add al,[bx+di]
00001894  0001              add [bx+di],al
00001896  0202              add al,[bp+si]
00001898  0101              add [bx+di],ax
0000189A  0203              add al,[bp+di]
0000189C  0101              add [bx+di],ax
0000189E  0202              add al,[bp+si]
000018A0  0101              add [bx+di],ax
000018A2  0101              add [bx+di],ax
000018A4  0001              add [bx+di],al
000018A6  0202              add al,[bp+si]
000018A8  0101              add [bx+di],ax
000018AA  0101              add [bx+di],ax
000018AC  0002              add [bp+si],al
000018AE  0202              add al,[bp+si]
000018B0  0202              add al,[bp+si]
000018B2  0202              add al,[bp+si]
000018B4  0002              add [bp+si],al
000018B6  0202              add al,[bp+si]
000018B8  0101              add [bx+di],ax
000018BA  0203              add al,[bp+di]
000018BC  0002              add [bp+si],al
000018BE  0202              add al,[bp+si]
000018C0  0202              add al,[bp+si]
000018C2  0302              add ax,[bp+si]
000018C4  0003              add [bp+di],al
000018C6  0303              add ax,[bp+di]
000018C8  0303              add ax,[bp+di]
000018CA  0303              add ax,[bp+di]
000018CC  0101              add [bx+di],ax
000018CE  0202              add al,[bp+si]
000018D0  0101              add [bx+di],ax
000018D2  0203              add al,[bp+di]
000018D4  0101              add [bx+di],ax
000018D6  0101              add [bx+di],ax
000018D8  0101              add [bx+di],ax
000018DA  0303              add ax,[bp+di]
000018DC  0101              add [bx+di],ax
000018DE  0202              add al,[bp+si]
000018E0  0103              add [bp+di],ax
000018E2  0301              add ax,[bx+di]
000018E4  0101              add [bx+di],ax
000018E6  0101              add [bx+di],ax
000018E8  0101              add [bx+di],ax
000018EA  0303              add ax,[bp+di]
000018EC  0201              add al,[bx+di]
000018EE  0203              add al,[bp+di]
000018F0  0203              add al,[bp+di]
000018F2  0303              add ax,[bp+di]
000018F4  0202              add al,[bp+si]
000018F6  0202              add al,[bp+si]
000018F8  0303              add ax,[bp+di]
000018FA  0303              add ax,[bp+di]
000018FC  0101              add [bx+di],ax
000018FE  0202              add al,[bp+si]
00001900  0301              add ax,[bx+di]
00001902  0303              add ax,[bp+di]
00001904  0301              add ax,[bx+di]
00001906  0202              add al,[bp+si]
00001908  0303              add ax,[bp+di]
0000190A  0303              add ax,[bp+di]
0000190C  0000              add [bx+si],al
0000190E  0000              add [bx+si],al
00001910  0101              add [bx+di],ax
00001912  0203              add al,[bp+di]
00001914  0000              add [bx+si],al
00001916  0002              add [bp+si],al
00001918  0101              add [bx+di],ax
0000191A  0203              add al,[bp+di]
0000191C  0101              add [bx+di],ax
0000191E  0203              add al,[bp+di]
00001920  0101              add [bx+di],ax
00001922  0201              add al,[bx+di]
00001924  0001              add [bx+di],al
00001926  0202              add al,[bp+si]
00001928  0101              add [bx+di],ax
0000192A  0101              add [bx+di],ax
0000192C  0202              add al,[bp+si]
0000192E  0203              add al,[bp+di]
00001930  0101              add [bx+di],ax
00001932  0202              add al,[bp+si]
00001934  0002              add [bp+si],al
00001936  0202              add al,[bp+si]
00001938  0101              add [bx+di],ax
0000193A  0203              add al,[bp+di]
0000193C  0202              add al,[bp+si]
0000193E  0203              add al,[bp+di]
00001940  0101              add [bx+di],ax
00001942  0202              add al,[bp+si]
00001944  0202              add al,[bp+si]
00001946  0202              add al,[bp+si]
00001948  0101              add [bx+di],ax
0000194A  0202              add al,[bp+si]
0000194C  0101              add [bx+di],ax
0000194E  0103              add [bp+di],ax
00001950  0101              add [bx+di],ax
00001952  0303              add ax,[bp+di]
00001954  0101              add [bx+di],ax
00001956  0101              add [bx+di],ax
00001958  0101              add [bx+di],ax
0000195A  0303              add ax,[bp+di]
0000195C  0101              add [bx+di],ax
0000195E  0103              add [bp+di],ax
00001960  0101              add [bx+di],ax
00001962  0303              add ax,[bp+di]
00001964  0101              add [bx+di],ax
00001966  0101              add [bx+di],ax
00001968  0101              add [bx+di],ax
0000196A  0303              add ax,[bp+di]
0000196C  0201              add al,[bx+di]
0000196E  0203              add al,[bp+di]
00001970  0303              add ax,[bp+di]
00001972  0303              add ax,[bp+di]
00001974  0201              add al,[bx+di]
00001976  0202              add al,[bp+si]
00001978  0303              add ax,[bp+di]
0000197A  0303              add ax,[bp+di]
0000197C  0301              add ax,[bx+di]
0000197E  0303              add ax,[bp+di]
00001980  0303              add ax,[bp+di]
00001982  0303              add ax,[bp+di]
00001984  0301              add ax,[bx+di]
00001986  0302              add ax,[bp+si]
00001988  0303              add ax,[bp+di]
0000198A  0303              add ax,[bp+di]
0000198C  0000              add [bx+si],al
0000198E  0000              add [bx+si],al
00001990  0001              add [bx+di],al
00001992  0203              add al,[bp+di]
00001994  0001              add [bx+di],al
00001996  0202              add al,[bp+si]
00001998  0101              add [bx+di],ax
0000199A  0203              add al,[bp+di]
0000199C  0001              add [bx+di],al
0000199E  0201              add al,[bx+di]
000019A0  0001              add [bx+di],al
000019A2  0101              add [bx+di],ax
000019A4  0001              add [bx+di],al
000019A6  0202              add al,[bp+si]
000019A8  0101              add [bx+di],ax
000019AA  0101              add [bx+di],ax
000019AC  0002              add [bp+si],al
000019AE  0201              add al,[bx+di]
000019B0  0002              add [bp+si],al
000019B2  0203              add al,[bp+di]
000019B4  0002              add [bp+si],al
000019B6  0202              add al,[bp+si]
000019B8  0101              add [bx+di],ax
000019BA  0203              add al,[bp+di]
000019BC  0001              add [bx+di],al
000019BE  0101              add [bx+di],ax
000019C0  0001              add [bx+di],al
000019C2  0203              add al,[bp+di]
000019C4  0003              add [bp+di],al
000019C6  0303              add ax,[bp+di]
000019C8  0303              add ax,[bp+di]
000019CA  0303              add ax,[bp+di]
000019CC  0000              add [bx+si],al
000019CE  0000              add [bx+si],al
000019D0  0000              add [bx+si],al
000019D2  0200              add al,[bx+si]
000019D4  0101              add [bx+di],ax
000019D6  0101              add [bx+di],ax
000019D8  0101              add [bx+di],ax
000019DA  0303              add ax,[bp+di]
000019DC  0101              add [bx+di],ax
000019DE  0201              add al,[bx+di]
000019E0  0003              add [bp+di],al
000019E2  0303              add ax,[bp+di]
000019E4  0101              add [bx+di],ax
000019E6  0101              add [bx+di],ax
000019E8  0101              add [bx+di],ax
000019EA  0303              add ax,[bp+di]
000019EC  0201              add al,[bx+di]
000019EE  0202              add al,[bp+si]
000019F0  0203              add al,[bp+di]
000019F2  0303              add ax,[bp+di]
000019F4  0202              add al,[bp+si]
000019F6  0202              add al,[bp+si]
000019F8  0303              add ax,[bp+di]
000019FA  0303              add ax,[bp+di]
000019FC  0301              add ax,[bx+di]
000019FE  0303              add ax,[bp+di]
00001A00  0003              add [bp+di],al
00001A02  0303              add ax,[bp+di]
00001A04  0301              add ax,[bx+di]
00001A06  0202              add al,[bp+si]
00001A08  0303              add ax,[bp+di]
00001A0A  0303              add ax,[bp+di]
00001A0C  0000              add [bx+si],al
00001A0E  0000              add [bx+si],al
00001A10  0101              add [bx+di],ax
00001A12  0203              add al,[bp+di]
00001A14  0000              add [bx+si],al
00001A16  0002              add [bp+si],al
00001A18  0101              add [bx+di],ax
00001A1A  0203              add al,[bp+di]
00001A1C  0101              add [bx+di],ax
00001A1E  0203              add al,[bp+di]
00001A20  0101              add [bx+di],ax
00001A22  0201              add al,[bx+di]
00001A24  0001              add [bx+di],al
00001A26  0202              add al,[bp+si]
00001A28  0101              add [bx+di],ax
00001A2A  0101              add [bx+di],ax
00001A2C  0202              add al,[bp+si]
00001A2E  0203              add al,[bp+di]
00001A30  0101              add [bx+di],ax
00001A32  0202              add al,[bp+si]
00001A34  0002              add [bp+si],al
00001A36  0202              add al,[bp+si]
00001A38  0101              add [bx+di],ax
00001A3A  0203              add al,[bp+di]
00001A3C  0202              add al,[bp+si]
00001A3E  0203              add al,[bp+di]
00001A40  0101              add [bx+di],ax
00001A42  0202              add al,[bp+si]
00001A44  0202              add al,[bp+si]
00001A46  0202              add al,[bp+si]
00001A48  0101              add [bx+di],ax
00001A4A  0202              add al,[bp+si]
00001A4C  0101              add [bx+di],ax
00001A4E  0103              add [bp+di],ax
00001A50  0101              add [bx+di],ax
00001A52  0303              add ax,[bp+di]
00001A54  0101              add [bx+di],ax
00001A56  0101              add [bx+di],ax
00001A58  0101              add [bx+di],ax
00001A5A  0303              add ax,[bp+di]
00001A5C  0101              add [bx+di],ax
00001A5E  0103              add [bp+di],ax
00001A60  0101              add [bx+di],ax
00001A62  0303              add ax,[bp+di]
00001A64  0101              add [bx+di],ax
00001A66  0101              add [bx+di],ax
00001A68  0101              add [bx+di],ax
00001A6A  0303              add ax,[bp+di]
00001A6C  0201              add al,[bx+di]
00001A6E  0203              add al,[bp+di]
00001A70  0303              add ax,[bp+di]
00001A72  0303              add ax,[bp+di]
00001A74  0201              add al,[bx+di]
00001A76  0202              add al,[bp+si]
00001A78  0303              add ax,[bp+di]
00001A7A  0303              add ax,[bp+di]
00001A7C  0301              add ax,[bx+di]
00001A7E  0303              add ax,[bp+di]
00001A80  0303              add ax,[bp+di]
00001A82  0303              add ax,[bp+di]
00001A84  0301              add ax,[bx+di]
00001A86  0302              add ax,[bp+si]
00001A88  0303              add ax,[bp+di]
00001A8A  0303              add ax,[bp+di]
00001A8C  0000              add [bx+si],al
00001A8E  0001              add [bx+di],al
00001A90  0101              add [bx+di],ax
00001A92  0203              add al,[bp+di]
00001A94  0001              add [bx+di],al
00001A96  0202              add al,[bp+si]
00001A98  0101              add [bx+di],ax
00001A9A  0203              add al,[bp+di]
00001A9C  0001              add [bx+di],al
00001A9E  0202              add al,[bp+si]
00001AA0  0101              add [bx+di],ax
00001AA2  0101              add [bx+di],ax
00001AA4  0001              add [bx+di],al
00001AA6  0202              add al,[bp+si]
00001AA8  0101              add [bx+di],ax
00001AAA  0101              add [bx+di],ax
00001AAC  0002              add [bp+si],al
00001AAE  0202              add al,[bp+si]
00001AB0  0101              add [bx+di],ax
00001AB2  0203              add al,[bp+di]
00001AB4  0002              add [bp+si],al
00001AB6  0202              add al,[bp+si]
00001AB8  0101              add [bx+di],ax
00001ABA  0203              add al,[bp+di]
00001ABC  0102              add [bp+si],ax
00001ABE  0202              add al,[bp+si]
00001AC0  0202              add al,[bp+si]
00001AC2  0202              add al,[bp+si]
00001AC4  0002              add [bp+si],al
00001AC6  0202              add al,[bp+si]
00001AC8  0202              add al,[bp+si]
00001ACA  0202              add al,[bp+si]
00001ACC  0101              add [bx+di],ax
00001ACE  0102              add [bp+si],ax
00001AD0  0101              add [bx+di],ax
00001AD2  0303              add ax,[bp+di]
00001AD4  0101              add [bx+di],ax
00001AD6  0101              add [bx+di],ax
00001AD8  0101              add [bx+di],ax
00001ADA  0303              add ax,[bp+di]
00001ADC  0101              add [bx+di],ax
00001ADE  0102              add [bp+si],ax
00001AE0  0101              add [bx+di],ax
00001AE2  0202              add al,[bp+si]
00001AE4  0101              add [bx+di],ax
00001AE6  0101              add [bx+di],ax
00001AE8  0101              add [bx+di],ax
00001AEA  0202              add al,[bp+si]
00001AEC  0201              add al,[bx+di]
00001AEE  0202              add al,[bp+si]
00001AF0  0302              add ax,[bp+si]
00001AF2  0303              add ax,[bp+di]
00001AF4  0202              add al,[bp+si]
00001AF6  0202              add al,[bp+si]
00001AF8  0303              add ax,[bp+di]
00001AFA  0303              add ax,[bp+di]
00001AFC  0301              add ax,[bx+di]
00001AFE  0302              add ax,[bp+si]
00001B00  0302              add ax,[bp+si]
00001B02  0303              add ax,[bp+di]
00001B04  0301              add ax,[bx+di]
00001B06  0202              add al,[bp+si]
00001B08  0303              add ax,[bp+di]
00001B0A  0303              add ax,[bp+di]
00001B0C  0000              add [bx+si],al
00001B0E  0000              add [bx+si],al
00001B10  0101              add [bx+di],ax
00001B12  0203              add al,[bp+di]
00001B14  0000              add [bx+si],al
00001B16  0002              add [bp+si],al
00001B18  0101              add [bx+di],ax
00001B1A  0203              add al,[bp+di]
00001B1C  0101              add [bx+di],ax
00001B1E  0203              add al,[bp+di]
00001B20  0101              add [bx+di],ax
00001B22  0201              add al,[bx+di]
00001B24  0001              add [bx+di],al
00001B26  0202              add al,[bp+si]
00001B28  0101              add [bx+di],ax
00001B2A  0101              add [bx+di],ax
00001B2C  0202              add al,[bp+si]
00001B2E  0203              add al,[bp+di]
00001B30  0101              add [bx+di],ax
00001B32  0202              add al,[bp+si]
00001B34  0002              add [bp+si],al
00001B36  0202              add al,[bp+si]
00001B38  0101              add [bx+di],ax
00001B3A  0203              add al,[bp+di]
00001B3C  0202              add al,[bp+si]
00001B3E  0203              add al,[bp+di]
00001B40  0101              add [bx+di],ax
00001B42  0202              add al,[bp+si]
00001B44  0202              add al,[bp+si]
00001B46  0202              add al,[bp+si]
00001B48  0101              add [bx+di],ax
00001B4A  0202              add al,[bp+si]
00001B4C  0101              add [bx+di],ax
00001B4E  0103              add [bp+di],ax
00001B50  0101              add [bx+di],ax
00001B52  0303              add ax,[bp+di]
00001B54  0101              add [bx+di],ax
00001B56  0101              add [bx+di],ax
00001B58  0101              add [bx+di],ax
00001B5A  0303              add ax,[bp+di]
00001B5C  0101              add [bx+di],ax
00001B5E  0103              add [bp+di],ax
00001B60  0101              add [bx+di],ax
00001B62  0303              add ax,[bp+di]
00001B64  0101              add [bx+di],ax
00001B66  0101              add [bx+di],ax
00001B68  0101              add [bx+di],ax
00001B6A  0303              add ax,[bp+di]
00001B6C  0201              add al,[bx+di]
00001B6E  0203              add al,[bp+di]
00001B70  0302              add ax,[bp+si]
00001B72  0303              add ax,[bp+di]
00001B74  0201              add al,[bx+di]
00001B76  0202              add al,[bp+si]
00001B78  0303              add ax,[bp+di]
00001B7A  0303              add ax,[bp+di]
00001B7C  0301              add ax,[bx+di]
00001B7E  0303              add ax,[bp+di]
00001B80  0302              add ax,[bp+si]
00001B82  0303              add ax,[bp+di]
00001B84  0301              add ax,[bx+di]
00001B86  0302              add ax,[bp+si]
00001B88  0303              add ax,[bp+di]
00001B8A  0303              add ax,[bp+di]
00001B8C  51                push cx
00001B8D  56                push si
00001B8E  2E8B36524C        mov si,[cs:0x4c52]
00001B93  B90800            mov cx,0x8
00001B96  33DB              xor bx,bx
00001B98  2ED1065A4C        rol word [cs:0x4c5a],0x0
00001B9D  13DB              adc bx,bx
00001B9F  2ED106584C        rol word [cs:0x4c58],0x0
00001BA4  13DB              adc bx,bx
00001BA6  2ED106564C        rol word [cs:0x4c56],0x0
00001BAB  13DB              adc bx,bx
00001BAD  2ED106544C        rol word [cs:0x4c54],0x0
00001BB2  13DB              adc bx,bx
00001BB4  2ED1065A4C        rol word [cs:0x4c5a],0x0
00001BB9  13DB              adc bx,bx
00001BBB  2ED106584C        rol word [cs:0x4c58],0x0
00001BC0  13DB              adc bx,bx
00001BC2  2ED106564C        rol word [cs:0x4c56],0x0
00001BC7  13DB              adc bx,bx
00001BC9  2ED106544C        rol word [cs:0x4c54],0x0
00001BCE  13DB              adc bx,bx
00001BD0  03C0              add ax,ax
00001BD2  03C0              add ax,ax
00001BD4  2E0A00            or al,[cs:bx+si]
00001BD7  E2BD              loop 0x1b96
00001BD9  5E                pop si
00001BDA  59                pop cx
00001BDB  C3                ret
00001BDC  1E                push ds
00001BDD  B800B0            mov ax,0xb000
00001BE0  8ED8              mov ds,ax
00001BE2  BE2F23            mov si,0x232f
00001BE5  8CC8              mov ax,cs
00001BE7  050020            add ax,0x2000
00001BEA  8EC0              mov es,ax
00001BEC  BF0000            mov di,0x0
00001BEF  B9C800            mov cx,0xc8
00001BF2  51                push cx
00001BF3  56                push si
00001BF4  B92800            mov cx,0x28
00001BF7  F3A5              rep movsw
00001BF9  5E                pop si
00001BFA  81C60020          add si,0x2000
00001BFE  81FE0060          cmp si,0x6000
00001C02  7204              jc 0x1c08
00001C04  81C65AA0          add si,0xa05a
00001C08  59                pop cx
00001C09  E2E7              loop 0x1bf2
00001C0B  1F                pop ds
00001C0C  33C0              xor ax,ax
00001C0E  BF0040            mov di,0x4000
00001C11  B90020            mov cx,0x2000
00001C14  F3AB              rep stosw
00001C16  C3                ret
00001C17  53                push bx
00001C18  8ADC              mov bl,ah
00001C1A  32FF              xor bh,bh
00001C1C  2E8AA7234C        mov ah,[cs:bx+0x4c23]
00001C21  5B                pop bx
00001C22  2EFF262220        jmp word near [cs:0x2022]
00001C27  0005              add [di],al
00001C29  0207              add al,[bx]
00001C2B  0304              add ax,[si]
00001C2D  06                push es
00001C2E  01C3              add bx,ax
00001C30  33C0              xor ax,ax
00001C32  8AC3              mov al,bl
00001C34  051C00            add ax,0x1c
00001C37  B303              mov bl,0x3
00001C39  F6F3              div bl
00001C3B  8ADC              mov bl,ah
00001C3D  D0CB              ror bl,0x0
00001C3F  D0CB              ror bl,0x0
00001C41  D0CB              ror bl,0x0
00001C43  80E360            and bl,0x60
00001C46  B45A              mov ah,0x5a
00001C48  F6E4              mul ah
00001C4A  02E3              add ah,bl
00001C4C  80C705            add bh,0x5
00001C4F  8ADF              mov bl,bh
00001C51  32FF              xor bh,bh
00001C53  03C3              add ax,bx
00001C55  C3                ret
00001C56  0000              add [bx+si],al
00001C58  0000              add [bx+si],al
00001C5A  0000              add [bx+si],al
00001C5C  0000              add [bx+si],al
00001C5E  0000              add [bx+si],al
00001C60  0000              add [bx+si],al
00001C62  0000              add [bx+si],al
00001C64  0000              add [bx+si],al
00001C66  0000              add [bx+si],al
00001C68  0000              add [bx+si],al
00001C6A  0000              add [bx+si],al
00001C6C  0000              add [bx+si],al
00001C6E  0000              add [bx+si],al
00001C70  0000              add [bx+si],al
00001C72  0000              add [bx+si],al
00001C74  0000              add [bx+si],al
00001C76  0000              add [bx+si],al
00001C78  0000              add [bx+si],al
00001C7A  0000              add [bx+si],al
00001C7C  0000              add [bx+si],al
00001C7E  0000              add [bx+si],al
00001C80  0000              add [bx+si],al
00001C82  0000              add [bx+si],al
00001C84  0000              add [bx+si],al
00001C86  0000              add [bx+si],al
00001C88  0000              add [bx+si],al
00001C8A  0000              add [bx+si],al
00001C8C  0000              add [bx+si],al
00001C8E  0000              add [bx+si],al
00001C90  0000              add [bx+si],al
00001C92  0000              add [bx+si],al
00001C94  0000              add [bx+si],al
00001C96  0000              add [bx+si],al
00001C98  0000              add [bx+si],al
00001C9A  0000              add [bx+si],al
00001C9C  0000              add [bx+si],al
00001C9E  0000              add [bx+si],al
00001CA0  0000              add [bx+si],al
00001CA2  0000              add [bx+si],al
00001CA4  0000              add [bx+si],al
00001CA6  0000              add [bx+si],al
00001CA8  0000              add [bx+si],al
00001CAA  0000              add [bx+si],al
00001CAC  0000              add [bx+si],al
00001CAE  0000              add [bx+si],al
00001CB0  0000              add [bx+si],al
00001CB2  0000              add [bx+si],al
00001CB4  0000              add [bx+si],al
00001CB6  0000              add [bx+si],al
00001CB8  0000              add [bx+si],al
00001CBA  0000              add [bx+si],al
00001CBC  0000              add [bx+si],al
00001CBE  0000              add [bx+si],al
00001CC0  0000              add [bx+si],al
00001CC2  0000              add [bx+si],al
00001CC4  0000              add [bx+si],al
00001CC6  0000              add [bx+si],al
00001CC8  0000              add [bx+si],al
00001CCA  0000              add [bx+si],al
00001CCC  0000              add [bx+si],al
00001CCE  0000              add [bx+si],al
00001CD0  0000              add [bx+si],al
00001CD2  0000              add [bx+si],al
00001CD4  0000              add [bx+si],al
00001CD6  0000              add [bx+si],al
00001CD8  0000              add [bx+si],al
00001CDA  0000              add [bx+si],al
00001CDC  0000              add [bx+si],al
00001CDE  0000              add [bx+si],al
00001CE0  0000              add [bx+si],al
00001CE2  0000              add [bx+si],al
00001CE4  0000              add [bx+si],al
00001CE6  0000              add [bx+si],al
00001CE8  0000              add [bx+si],al
00001CEA  0000              add [bx+si],al
00001CEC  0000              add [bx+si],al
00001CEE  0000              add [bx+si],al
00001CF0  0000              add [bx+si],al
00001CF2  0000              add [bx+si],al
00001CF4  0000              add [bx+si],al
00001CF6  0000              add [bx+si],al
00001CF8  0000              add [bx+si],al
00001CFA  0000              add [bx+si],al
00001CFC  0000              add [bx+si],al
00001CFE  0000              add [bx+si],al
00001D00  0000              add [bx+si],al
00001D02  0000              add [bx+si],al
00001D04  0000              add [bx+si],al
00001D06  0000              add [bx+si],al
00001D08  0000              add [bx+si],al
00001D0A  0000              add [bx+si],al
00001D0C  0000              add [bx+si],al
00001D0E  0000              add [bx+si],al
00001D10  0000              add [bx+si],al
00001D12  0000              add [bx+si],al
00001D14  0000              add [bx+si],al
00001D16  0000              add [bx+si],al
00001D18  0000              add [bx+si],al
00001D1A  0000              add [bx+si],al
00001D1C  0000              add [bx+si],al
00001D1E  0000              add [bx+si],al
00001D20  0000              add [bx+si],al
00001D22  0000              add [bx+si],al
00001D24  0000              add [bx+si],al
00001D26  0000              add [bx+si],al
00001D28  0000              add [bx+si],al
00001D2A  0000              add [bx+si],al
00001D2C  0000              add [bx+si],al
00001D2E  0000              add [bx+si],al
00001D30  0000              add [bx+si],al
00001D32  0000              add [bx+si],al
00001D34  0000              add [bx+si],al
00001D36  0000              add [bx+si],al
00001D38  0000              add [bx+si],al
00001D3A  0000              add [bx+si],al
00001D3C  0000              add [bx+si],al
00001D3E  0000              add [bx+si],al
00001D40  0000              add [bx+si],al
00001D42  0000              add [bx+si],al
00001D44  0000              add [bx+si],al
00001D46  0000              add [bx+si],al
00001D48  0000              add [bx+si],al
00001D4A  0000              add [bx+si],al
00001D4C  0000              add [bx+si],al
00001D4E  0000              add [bx+si],al
00001D50  0000              add [bx+si],al
00001D52  0000              add [bx+si],al
00001D54  0000              add [bx+si],al
00001D56  0000              add [bx+si],al
00001D58  0000              add [bx+si],al
00001D5A  0000              add [bx+si],al
00001D5C  0000              add [bx+si],al
00001D5E  0000              add [bx+si],al
00001D60  0000              add [bx+si],al
00001D62  0000              add [bx+si],al
00001D64  0000              add [bx+si],al
00001D66  0000              add [bx+si],al
00001D68  0000              add [bx+si],al
00001D6A  0000              add [bx+si],al
00001D6C  0000              add [bx+si],al
00001D6E  0000              add [bx+si],al
00001D70  0000              add [bx+si],al
00001D72  0000              add [bx+si],al
00001D74  0000              add [bx+si],al
00001D76  0000              add [bx+si],al
00001D78  0000              add [bx+si],al
00001D7A  0000              add [bx+si],al
00001D7C  0000              add [bx+si],al
00001D7E  0000              add [bx+si],al
00001D80  0000              add [bx+si],al
00001D82  0000              add [bx+si],al
00001D84  0000              add [bx+si],al
00001D86  0000              add [bx+si],al
00001D88  0000              add [bx+si],al
00001D8A  0000              add [bx+si],al
00001D8C  0000              add [bx+si],al
00001D8E  0000              add [bx+si],al
00001D90  0000              add [bx+si],al
00001D92  0000              add [bx+si],al
00001D94  0000              add [bx+si],al
00001D96  0000              add [bx+si],al
00001D98  0000              add [bx+si],al
00001D9A  0000              add [bx+si],al
00001D9C  0000              add [bx+si],al
00001D9E  0000              add [bx+si],al
00001DA0  0000              add [bx+si],al
00001DA2  0000              add [bx+si],al
00001DA4  0000              add [bx+si],al
00001DA6  0000              add [bx+si],al
00001DA8  0000              add [bx+si],al
00001DAA  0000              add [bx+si],al
00001DAC  0000              add [bx+si],al
00001DAE  0000              add [bx+si],al
00001DB0  0000              add [bx+si],al
00001DB2  0000              add [bx+si],al
00001DB4  0000              add [bx+si],al
00001DB6  0000              add [bx+si],al
00001DB8  0000              add [bx+si],al
00001DBA  0000              add [bx+si],al
00001DBC  0000              add [bx+si],al
00001DBE  0000              add [bx+si],al
00001DC0  0000              add [bx+si],al
00001DC2  0000              add [bx+si],al
00001DC4  0000              add [bx+si],al
00001DC6  0000              add [bx+si],al
00001DC8  0000              add [bx+si],al
00001DCA  0000              add [bx+si],al
00001DCC  0000              add [bx+si],al
00001DCE  0000              add [bx+si],al
00001DD0  0000              add [bx+si],al
00001DD2  0000              add [bx+si],al
00001DD4  0000              add [bx+si],al
00001DD6  0000              add [bx+si],al
00001DD8  0000              add [bx+si],al
00001DDA  0000              add [bx+si],al
00001DDC  0000              add [bx+si],al
00001DDE  0000              add [bx+si],al
00001DE0  0000              add [bx+si],al
00001DE2  0000              add [bx+si],al
00001DE4  0000              add [bx+si],al
00001DE6  0000              add [bx+si],al
00001DE8  0000              add [bx+si],al
00001DEA  0000              add [bx+si],al
00001DEC  0000              add [bx+si],al
00001DEE  0000              add [bx+si],al
00001DF0  0000              add [bx+si],al
00001DF2  0000              add [bx+si],al
00001DF4  0000              add [bx+si],al
00001DF6  0000              add [bx+si],al
00001DF8  0000              add [bx+si],al
00001DFA  0000              add [bx+si],al
00001DFC  0000              add [bx+si],al
00001DFE  0000              add [bx+si],al
00001E00  0000              add [bx+si],al
00001E02  0000              add [bx+si],al
00001E04  0000              add [bx+si],al
00001E06  0000              add [bx+si],al
00001E08  0000              add [bx+si],al
00001E0A  0000              add [bx+si],al
00001E0C  0000              add [bx+si],al
00001E0E  0000              add [bx+si],al
00001E10  0000              add [bx+si],al
00001E12  0000              add [bx+si],al
00001E14  0000              add [bx+si],al
00001E16  0000              add [bx+si],al
00001E18  0000              add [bx+si],al
00001E1A  0000              add [bx+si],al
00001E1C  0000              add [bx+si],al
00001E1E  0000              add [bx+si],al
00001E20  0000              add [bx+si],al
00001E22  0000              add [bx+si],al
00001E24  0000              add [bx+si],al
00001E26  0000              add [bx+si],al
00001E28  0000              add [bx+si],al
00001E2A  0000              add [bx+si],al
00001E2C  0000              add [bx+si],al
00001E2E  0000              add [bx+si],al
00001E30  0000              add [bx+si],al
00001E32  0000              add [bx+si],al
00001E34  0000              add [bx+si],al
00001E36  0000              add [bx+si],al
00001E38  0000              add [bx+si],al
00001E3A  0000              add [bx+si],al
00001E3C  0000              add [bx+si],al
00001E3E  0000              add [bx+si],al
00001E40  0000              add [bx+si],al
00001E42  0000              add [bx+si],al
00001E44  0000              add [bx+si],al
00001E46  0000              add [bx+si],al
00001E48  0000              add [bx+si],al
00001E4A  0000              add [bx+si],al
00001E4C  0000              add [bx+si],al
00001E4E  0000              add [bx+si],al
00001E50  0000              add [bx+si],al
00001E52  0000              add [bx+si],al
00001E54  0000              add [bx+si],al
00001E56  0000              add [bx+si],al
00001E58  0000              add [bx+si],al
00001E5A  0000              add [bx+si],al
00001E5C  0000              add [bx+si],al
00001E5E  0000              add [bx+si],al
00001E60  0000              add [bx+si],al
00001E62  0000              add [bx+si],al
00001E64  0000              add [bx+si],al
00001E66  0000              add [bx+si],al
00001E68  0000              add [bx+si],al
00001E6A  0000              add [bx+si],al
00001E6C  0000              add [bx+si],al
00001E6E  0000              add [bx+si],al
00001E70  0000              add [bx+si],al
00001E72  0000              add [bx+si],al
00001E74  0000              add [bx+si],al
00001E76  0000              add [bx+si],al
00001E78  0000              add [bx+si],al
00001E7A  0000              add [bx+si],al
00001E7C  0000              add [bx+si],al
00001E7E  0000              add [bx+si],al
00001E80  0000              add [bx+si],al
00001E82  0000              add [bx+si],al
00001E84  0000              add [bx+si],al
00001E86  0000              add [bx+si],al
00001E88  0000              add [bx+si],al
00001E8A  0000              add [bx+si],al
00001E8C  0000              add [bx+si],al
00001E8E  0000              add [bx+si],al
00001E90  0000              add [bx+si],al
00001E92  0000              add [bx+si],al
00001E94  0000              add [bx+si],al
00001E96  0000              add [bx+si],al
00001E98  0000              add [bx+si],al
00001E9A  0000              add [bx+si],al
00001E9C  0000              add [bx+si],al
00001E9E  0000              add [bx+si],al
00001EA0  0000              add [bx+si],al
00001EA2  0000              add [bx+si],al
00001EA4  0000              add [bx+si],al
00001EA6  0000              add [bx+si],al
00001EA8  0000              add [bx+si],al
00001EAA  0000              add [bx+si],al
00001EAC  0000              add [bx+si],al
00001EAE  0000              add [bx+si],al
00001EB0  0000              add [bx+si],al
00001EB2  0000              add [bx+si],al
00001EB4  0000              add [bx+si],al
00001EB6  0000              add [bx+si],al
00001EB8  0000              add [bx+si],al
00001EBA  0000              add [bx+si],al
00001EBC  0000              add [bx+si],al
00001EBE  0000              add [bx+si],al
00001EC0  0000              add [bx+si],al
00001EC2  0000              add [bx+si],al
00001EC4  0000              add [bx+si],al
00001EC6  0000              add [bx+si],al
00001EC8  0000              add [bx+si],al
00001ECA  0000              add [bx+si],al
00001ECC  0000              add [bx+si],al
00001ECE  0000              add [bx+si],al
00001ED0  0000              add [bx+si],al
00001ED2  0000              add [bx+si],al
00001ED4  0000              add [bx+si],al
00001ED6  0000              add [bx+si],al
00001ED8  0000              add [bx+si],al
00001EDA  0000              add [bx+si],al
00001EDC  0000              add [bx+si],al
00001EDE  0000              add [bx+si],al
00001EE0  0000              add [bx+si],al
00001EE2  0000              add [bx+si],al
00001EE4  0000              add [bx+si],al
00001EE6  0000              add [bx+si],al
00001EE8  0000              add [bx+si],al
00001EEA  0000              add [bx+si],al
00001EEC  0000              add [bx+si],al
00001EEE  0000              add [bx+si],al
00001EF0  0000              add [bx+si],al
00001EF2  0000              add [bx+si],al
00001EF4  0000              add [bx+si],al
00001EF6  0000              add [bx+si],al
00001EF8  0000              add [bx+si],al
00001EFA  0000              add [bx+si],al
00001EFC  0000              add [bx+si],al
00001EFE  0000              add [bx+si],al
00001F00  0000              add [bx+si],al
00001F02  0000              add [bx+si],al
00001F04  0000              add [bx+si],al
00001F06  0000              add [bx+si],al
00001F08  0000              add [bx+si],al
00001F0A  0000              add [bx+si],al
00001F0C  0000              add [bx+si],al
00001F0E  0000              add [bx+si],al
00001F10  0000              add [bx+si],al
00001F12  0000              add [bx+si],al
00001F14  0000              add [bx+si],al
00001F16  0000              add [bx+si],al
00001F18  0000              add [bx+si],al
00001F1A  0000              add [bx+si],al
00001F1C  0000              add [bx+si],al
00001F1E  0000              add [bx+si],al
00001F20  0000              add [bx+si],al
00001F22  0000              add [bx+si],al
00001F24  0000              add [bx+si],al
00001F26  0000              add [bx+si],al
00001F28  0000              add [bx+si],al
00001F2A  0000              add [bx+si],al
00001F2C  0000              add [bx+si],al
00001F2E  0000              add [bx+si],al
00001F30  0000              add [bx+si],al
00001F32  0000              add [bx+si],al
00001F34  0000              add [bx+si],al
00001F36  0000              add [bx+si],al
00001F38  0000              add [bx+si],al
00001F3A  0000              add [bx+si],al
00001F3C  0000              add [bx+si],al
00001F3E  0000              add [bx+si],al
00001F40  0000              add [bx+si],al
00001F42  0000              add [bx+si],al
00001F44  0000              add [bx+si],al
00001F46  0000              add [bx+si],al
00001F48  0000              add [bx+si],al
00001F4A  0000              add [bx+si],al
00001F4C  0000              add [bx+si],al
00001F4E  0000              add [bx+si],al
00001F50  0000              add [bx+si],al
00001F52  0000              add [bx+si],al
00001F54  0000              add [bx+si],al
00001F56  0000              add [bx+si],al
00001F58  0000              add [bx+si],al
00001F5A  0000              add [bx+si],al
00001F5C  0000              add [bx+si],al
00001F5E  0000              add [bx+si],al
00001F60  0000              add [bx+si],al
00001F62  0000              add [bx+si],al
00001F64  0000              add [bx+si],al
00001F66  0000              add [bx+si],al
00001F68  0000              add [bx+si],al
00001F6A  0000              add [bx+si],al
00001F6C  0000              add [bx+si],al
00001F6E  0000              add [bx+si],al
00001F70  0000              add [bx+si],al
00001F72  0000              add [bx+si],al
00001F74  0000              add [bx+si],al
00001F76  0000              add [bx+si],al
00001F78  0000              add [bx+si],al
00001F7A  0000              add [bx+si],al
00001F7C  0000              add [bx+si],al
00001F7E  0000              add [bx+si],al
00001F80  0000              add [bx+si],al
00001F82  0000              add [bx+si],al
00001F84  0000              add [bx+si],al
00001F86  0000              add [bx+si],al
00001F88  0000              add [bx+si],al
00001F8A  0000              add [bx+si],al
00001F8C  0000              add [bx+si],al
00001F8E  0000              add [bx+si],al
00001F90  0000              add [bx+si],al
00001F92  0000              add [bx+si],al
00001F94  0000              add [bx+si],al
00001F96  0000              add [bx+si],al
00001F98  0000              add [bx+si],al
00001F9A  0000              add [bx+si],al
00001F9C  0000              add [bx+si],al
00001F9E  0000              add [bx+si],al
00001FA0  0000              add [bx+si],al
00001FA2  0000              add [bx+si],al
00001FA4  0000              add [bx+si],al
00001FA6  0000              add [bx+si],al
00001FA8  0000              add [bx+si],al
00001FAA  0000              add [bx+si],al
00001FAC  0000              add [bx+si],al
00001FAE  0000              add [bx+si],al
00001FB0  0000              add [bx+si],al
00001FB2  0000              add [bx+si],al
00001FB4  0000              add [bx+si],al
00001FB6  0000              add [bx+si],al
00001FB8  0000              add [bx+si],al
00001FBA  0000              add [bx+si],al
00001FBC  0000              add [bx+si],al
00001FBE  0000              add [bx+si],al
00001FC0  0000              add [bx+si],al
00001FC2  0000              add [bx+si],al
00001FC4  0000              add [bx+si],al
00001FC6  0000              add [bx+si],al
00001FC8  0000              add [bx+si],al
00001FCA  0000              add [bx+si],al
00001FCC  0000              add [bx+si],al
